LX51 LINKER/LOCATER V4.66.97.0                                                          05/09/2022  19:31:19  PAGE 1


LX51 LINKER/LOCATER V4.66.97.0, INVOKED BY:
D:\KEIL\C51\BIN\LX51.EXE .\BUILD\STC8H8K64U\__\__\LIBRARIES\LIBRARIES\SEEKFREE_PRINTF.O, .\BUILD\STC8H8K64U\__\__\LIBRAR
>> IES\LIBRARIES\BOARD.O, .\BUILD\STC8H8K64U\__\__\LIBRARIES\LIBRARIES\COMMON.O, .\BUILD\STC8H8K64U\__\__\LIBRARIES\SEEK
>> FREE_LIBRARIES\ZF_ADC.O, .\BUILD\STC8H8K64U\__\__\LIBRARIES\SEEKFREE_LIBRARIES\ZF_DELAY.O, .\BUILD\STC8H8K64U\__\__\L
>> IBRARIES\SEEKFREE_LIBRARIES\ZF_EEPROM.O, .\BUILD\STC8H8K64U\__\__\LIBRARIES\SEEKFREE_LIBRARIES\ZF_EXTI.O, .\BUILD\STC
>> 8H8K64U\__\__\LIBRARIES\SEEKFREE_LIBRARIES\ZF_GPIO.O, .\BUILD\STC8H8K64U\__\__\LIBRARIES\SEEKFREE_LIBRARIES\ZF_IIC.O,
>>  .\BUILD\STC8H8K64U\__\__\LIBRARIES\SEEKFREE_LIBRARIES\ZF_MDU16.O, .\BUILD\STC8H8K64U\__\__\LIBRARIES\SEEKFREE_LIBRAR
>> IES\ZF_NVIC.O, .\BUILD\STC8H8K64U\__\__\LIBRARIES\SEEKFREE_LIBRARIES\ZF_PWM.O, .\BUILD\STC8H8K64U\__\__\LIBRARIES\SEE
>> KFREE_LIBRARIES\ZF_SPI.O, .\BUILD\STC8H8K64U\__\__\LIBRARIES\SEEKFREE_LIBRARIES\ZF_TIM.O, .\BUILD\STC8H8K64U\__\__\LI
>> BRARIES\SEEKFREE_LIBRARIES\ZF_UART.O, .\BUILD\STC8H8K64U\__\__\LIBRARIES\SEEKFREE_PERIPHERAL\SEEKFREE_18TFT.O, .\BUIL
>> D\STC8H8K64U\__\__\LIBRARIES\SEEKFREE_PERIPHERAL\SEEKFREE_ABSOLUTE_ENCODER.O, .\BUILD\STC8H8K64U\__\__\LIBRARIES\SEEK
>> FREE_PERIPHERAL\SEEKFREE_BLUETOOTH_CH9141.O, .\BUILD\STC8H8K64U\__\__\LIBRARIES\SEEKFREE_PERIPHERAL\SEEKFREE_FONT.O, 
>> .\BUILD\STC8H8K64U\__\__\LIBRARIES\SEEKFREE_PERIPHERAL\SEEKFREE_ICM20602.O, .\BUILD\STC8H8K64U\__\__\LIBRARIES\SEEKFR
>> EE_PERIPHERAL\SEEKFREE_IIC.O, .\BUILD\STC8H8K64U\__\__\LIBRARIES\SEEKFREE_PERIPHERAL\SEEKFREE_IPS114_SPI.O, .\BUILD\S
>> TC8H8K64U\__\__\LIBRARIES\SEEKFREE_PERIPHERAL\SEEKFREE_MPU6050.O, .\BUILD\STC8H8K64U\__\__\LIBRARIES\SEEKFREE_PERIPHE
>> RAL\SEEKFREE_OLED.O, .\BUILD\STC8H8K64U\__\__\LIBRARIES\SEEKFREE_PERIPHERAL\SEEKFREE_TSL1401.O, .\BUILD\STC8H8K64U\__
>> \__\LIBRARIES\SEEKFREE_PERIPHERAL\SEEKFREE_VIRSCO.O, .\BUILD\STC8H8K64U\__\__\LIBRARIES\SEEKFREE_PERIPHERAL\SEEKFREE_
>> WIRELESS.O, .\BUILD\STC8H8K64U\__\__\LIBRARIES\SEEKFREE_PERIPHERAL\SEEKFREE_WIRELESS_CH573.O, .\BUILD\STC8H8K64U\__\U
>> SER\SRC\ISR.O, .\BUILD\STC8H8K64U\__\USER\SRC\MAIN.O TO .\BUILD\STC8H8K64U\MDK PRINT (.\build\STC8H8K64U\MDK.map) REM
>> OVEUNUSED


CPU MODE:     8051 MODE
MEMORY MODEL: LARGE WITH FLOATING POINT ARITHMETIC


INPUT MODULES INCLUDED:
  .\BUILD\STC8H8K64U\__\__\LIBRARIES\LIBRARIES\SEEKFREE_PRINTF.O (SEEKFREE_PRINTF)
         COMMENT TYPE 0: C51 V9.60.0.0
  .\BUILD\STC8H8K64U\__\__\LIBRARIES\LIBRARIES\BOARD.O (BOARD)
         COMMENT TYPE 0: C51 V9.60.0.0
  .\BUILD\STC8H8K64U\__\__\LIBRARIES\LIBRARIES\COMMON.O (COMMON)
         COMMENT TYPE 0: C51 V9.60.0.0
  .\BUILD\STC8H8K64U\__\__\LIBRARIES\SEEKFREE_LIBRARIES\ZF_ADC.O (ZF_ADC)
         COMMENT TYPE 0: C51 V9.60.0.0
  .\BUILD\STC8H8K64U\__\__\LIBRARIES\SEEKFREE_LIBRARIES\ZF_DELAY.O (ZF_DELAY)
         COMMENT TYPE 0: C51 V9.60.0.0
  .\BUILD\STC8H8K64U\__\__\LIBRARIES\SEEKFREE_LIBRARIES\ZF_EEPROM.O (ZF_EEPROM)
         COMMENT TYPE 0: C51 V9.60.0.0
  .\BUILD\STC8H8K64U\__\__\LIBRARIES\SEEKFREE_LIBRARIES\ZF_EXTI.O (ZF_EXTI)
         COMMENT TYPE 0: C51 V9.60.0.0
  .\BUILD\STC8H8K64U\__\__\LIBRARIES\SEEKFREE_LIBRARIES\ZF_GPIO.O (ZF_GPIO)
         COMMENT TYPE 0: C51 V9.60.0.0
  .\BUILD\STC8H8K64U\__\__\LIBRARIES\SEEKFREE_LIBRARIES\ZF_IIC.O (ZF_IIC)
         COMMENT TYPE 0: C51 V9.60.0.0
  .\BUILD\STC8H8K64U\__\__\LIBRARIES\SEEKFREE_LIBRARIES\ZF_MDU16.O (ZF_MDU16)
         COMMENT TYPE 0: C51 V9.60.0.0
  .\BUILD\STC8H8K64U\__\__\LIBRARIES\SEEKFREE_LIBRARIES\ZF_NVIC.O (ZF_NVIC)
         COMMENT TYPE 0: C51 V9.60.0.0
  .\BUILD\STC8H8K64U\__\__\LIBRARIES\SEEKFREE_LIBRARIES\ZF_PWM.O (ZF_PWM)
         COMMENT TYPE 0: C51 V9.60.0.0
  .\BUILD\STC8H8K64U\__\__\LIBRARIES\SEEKFREE_LIBRARIES\ZF_SPI.O (ZF_SPI)
         COMMENT TYPE 0: C51 V9.60.0.0
  .\BUILD\STC8H8K64U\__\__\LIBRARIES\SEEKFREE_LIBRARIES\ZF_TIM.O (ZF_TIM)
         COMMENT TYPE 0: C51 V9.60.0.0
  .\BUILD\STC8H8K64U\__\__\LIBRARIES\SEEKFREE_LIBRARIES\ZF_UART.O (ZF_UART)
         COMMENT TYPE 0: C51 V9.60.0.0
  .\BUILD\STC8H8K64U\__\__\LIBRARIES\SEEKFREE_PERIPHERAL\SEEKFREE_18TFT.O (SEEKFREE_18TFT)
         COMMENT TYPE 0: C51 V9.60.0.0
  .\BUILD\STC8H8K64U\__\__\LIBRARIES\SEEKFREE_PERIPHERAL\SEEKFREE_ABSOLUTE_ENCODER.O (SEEKFREE_ABSOLUTE_ENCODER)
         COMMENT TYPE 0: C51 V9.60.0.0
  .\BUILD\STC8H8K64U\__\__\LIBRARIES\SEEKFREE_PERIPHERAL\SEEKFREE_BLUETOOTH_CH9141.O (SEEKFREE_BLUETOOTH_CH9141)
         COMMENT TYPE 0: C51 V9.60.0.0
  .\BUILD\STC8H8K64U\__\__\LIBRARIES\SEEKFREE_PERIPHERAL\SEEKFREE_FONT.O (SEEKFREE_FONT)
         COMMENT TYPE 0: C51 V9.60.0.0
  .\BUILD\STC8H8K64U\__\__\LIBRARIES\SEEKFREE_PERIPHERAL\SEEKFREE_ICM20602.O (SEEKFREE_ICM20602)
LX51 LINKER/LOCATER V4.66.97.0                                                        05/09/2022  19:31:19  PAGE 2


         COMMENT TYPE 0: C51 V9.60.0.0
  .\BUILD\STC8H8K64U\__\__\LIBRARIES\SEEKFREE_PERIPHERAL\SEEKFREE_IIC.O (SEEKFREE_IIC)
         COMMENT TYPE 0: C51 V9.60.0.0
  .\BUILD\STC8H8K64U\__\__\LIBRARIES\SEEKFREE_PERIPHERAL\SEEKFREE_IPS114_SPI.O (SEEKFREE_IPS114_SPI)
         COMMENT TYPE 0: C51 V9.60.0.0
  .\BUILD\STC8H8K64U\__\__\LIBRARIES\SEEKFREE_PERIPHERAL\SEEKFREE_MPU6050.O (SEEKFREE_MPU6050)
         COMMENT TYPE 0: C51 V9.60.0.0
  .\BUILD\STC8H8K64U\__\__\LIBRARIES\SEEKFREE_PERIPHERAL\SEEKFREE_OLED.O (SEEKFREE_OLED)
         COMMENT TYPE 0: C51 V9.60.0.0
  .\BUILD\STC8H8K64U\__\__\LIBRARIES\SEEKFREE_PERIPHERAL\SEEKFREE_TSL1401.O (SEEKFREE_TSL1401)
         COMMENT TYPE 0: C51 V9.60.0.0
  .\BUILD\STC8H8K64U\__\__\LIBRARIES\SEEKFREE_PERIPHERAL\SEEKFREE_VIRSCO.O (SEEKFREE_VIRSCO)
         COMMENT TYPE 0: C51 V9.60.0.0
  .\BUILD\STC8H8K64U\__\__\LIBRARIES\SEEKFREE_PERIPHERAL\SEEKFREE_WIRELESS.O (SEEKFREE_WIRELESS)
         COMMENT TYPE 0: C51 V9.60.0.0
  .\BUILD\STC8H8K64U\__\__\LIBRARIES\SEEKFREE_PERIPHERAL\SEEKFREE_WIRELESS_CH573.O (SEEKFREE_WIRELESS_CH573)
         COMMENT TYPE 0: C51 V9.60.0.0
  .\BUILD\STC8H8K64U\__\USER\SRC\ISR.O (ISR)
         COMMENT TYPE 0: C51 V9.60.0.0
  .\BUILD\STC8H8K64U\__\USER\SRC\MAIN.O (MAIN)
         COMMENT TYPE 0: C51 V9.60.0.0
  D:\KEIL\C51\LIB\C51FPL.LIB (?C?FPADD)
         COMMENT TYPE 1: A51 / ASM51 Assembler
  D:\KEIL\C51\LIB\C51FPL.LIB (?C?FPMUL)
         COMMENT TYPE 1: A51 / ASM51 Assembler
  D:\KEIL\C51\LIB\C51FPL.LIB (?C?FPDIV)
         COMMENT TYPE 1: A51 / ASM51 Assembler
  D:\KEIL\C51\LIB\C51FPL.LIB (?C?FPCMP)
         COMMENT TYPE 1: A51 / ASM51 Assembler
  D:\KEIL\C51\LIB\C51FPL.LIB (?C?FPNEG)
         COMMENT TYPE 1: A51 / ASM51 Assembler
  D:\KEIL\C51\LIB\C51FPL.LIB (?C?FCAST)
         COMMENT TYPE 1: A51 / ASM51 Assembler
  D:\KEIL\C51\LIB\C51FPL.LIB (?C?CASTF)
         COMMENT TYPE 1: A51 / ASM51 Assembler
  D:\KEIL\C51\LIB\C51FPL.LIB (?C?FPGETOPN)
         COMMENT TYPE 1: A51 / ASM51 Assembler
  D:\KEIL\C51\LIB\C51L.LIB (?C_STARTUP)
         COMMENT TYPE 1: A51 / ASM51 Assembler
  D:\KEIL\C51\LIB\C51L.LIB (?C?COPY)
         COMMENT TYPE 1: A51 / ASM51 Assembler
  D:\KEIL\C51\LIB\C51L.LIB (?C?SCDIV)
         COMMENT TYPE 1: A51 / ASM51 Assembler
  D:\KEIL\C51\LIB\C51L.LIB (?C?CLDPTR)
         COMMENT TYPE 1: A51 / ASM51 Assembler
  D:\KEIL\C51\LIB\C51L.LIB (?C?CLDOPTR)
         COMMENT TYPE 1: A51 / ASM51 Assembler
  D:\KEIL\C51\LIB\C51L.LIB (?C?CSTPTR)
         COMMENT TYPE 1: A51 / ASM51 Assembler
  D:\KEIL\C51\LIB\C51L.LIB (?C?CSTOPTR)
         COMMENT TYPE 1: A51 / ASM51 Assembler
  D:\KEIL\C51\LIB\C51L.LIB (?C?IMUL)
         COMMENT TYPE 1: A51 / ASM51 Assembler
  D:\KEIL\C51\LIB\C51L.LIB (?C?UIDIV)
         COMMENT TYPE 1: A51 / ASM51 Assembler
  D:\KEIL\C51\LIB\C51L.LIB (?C?SIDIV)
         COMMENT TYPE 1: A51 / ASM51 Assembler
  D:\KEIL\C51\LIB\C51L.LIB (?C?IILDX)
         COMMENT TYPE 1: A51 / ASM51 Assembler
  D:\KEIL\C51\LIB\C51L.LIB (?C?ILDIX)
         COMMENT TYPE 1: A51 / ASM51 Assembler
  D:\KEIL\C51\LIB\C51L.LIB (?C?ILDOPTR)
         COMMENT TYPE 1: A51 / ASM51 Assembler
  D:\KEIL\C51\LIB\C51L.LIB (?C?LMUL)
         COMMENT TYPE 1: A51 / ASM51 Assembler
LX51 LINKER/LOCATER V4.66.97.0                                                        05/09/2022  19:31:19  PAGE 3


  D:\KEIL\C51\LIB\C51L.LIB (?C?ULDIV)
         COMMENT TYPE 1: A51 / ASM51 Assembler
  D:\KEIL\C51\LIB\C51L.LIB (?C?SLDIV)
         COMMENT TYPE 1: A51 / ASM51 Assembler
  D:\KEIL\C51\LIB\C51L.LIB (?C?LNEG)
         COMMENT TYPE 1: A51 / ASM51 Assembler
  D:\KEIL\C51\LIB\C51L.LIB (?C?SLCMP)
         COMMENT TYPE 1: A51 / ASM51 Assembler
  D:\KEIL\C51\LIB\C51L.LIB (?C?ULCMP)
         COMMENT TYPE 1: A51 / ASM51 Assembler
  D:\KEIL\C51\LIB\C51L.LIB (?C?ULSHR)
         COMMENT TYPE 1: A51 / ASM51 Assembler
  D:\KEIL\C51\LIB\C51L.LIB (?C?LLDPTR)
         COMMENT TYPE 1: A51 / ASM51 Assembler
  D:\KEIL\C51\LIB\C51L.LIB (?C?LLDIXDATA)
         COMMENT TYPE 1: A51 / ASM51 Assembler
  D:\KEIL\C51\LIB\C51L.LIB (?C?LSTXDATA)
         COMMENT TYPE 1: A51 / ASM51 Assembler
  D:\KEIL\C51\LIB\C51L.LIB (?C?LSTKXDATA)
         COMMENT TYPE 1: A51 / ASM51 Assembler
  D:\KEIL\C51\LIB\C51L.LIB (?C?OFFX256)
         COMMENT TYPE 1: A51 / ASM51 Assembler
  D:\KEIL\C51\LIB\C51L.LIB (?C?PLDPTR)
         COMMENT TYPE 1: A51 / ASM51 Assembler
  D:\KEIL\C51\LIB\C51L.LIB (?C?CCASE)
         COMMENT TYPE 1: A51 / ASM51 Assembler
  D:\KEIL\C51\LIB\C51L.LIB (STRNCMP)
         COMMENT TYPE 1: C51 Compiler
  D:\KEIL\C51\LIB\C51L.LIB (STRLEN)
         COMMENT TYPE 1: A51 / ASM51 Assembler
  D:\KEIL\C51\LIB\C51L.LIB (?C_INIT)
         COMMENT TYPE 1: A51 / ASM51 Assembler
  D:\KEIL\C51\LIB\C51L.LIB (?C?LLDIDATA)
         COMMENT TYPE 1: A51 / ASM51 Assembler
  D:\KEIL\C51\LIB\C51L.LIB (?C?LLDXDATA)
         COMMENT TYPE 1: A51 / ASM51 Assembler
  D:\KEIL\C51\LIB\C51L.LIB (?C?LLDPDATA)
         COMMENT TYPE 1: A51 / ASM51 Assembler
  D:\KEIL\C51\LIB\C51L.LIB (?C?LLDCODE)
         COMMENT TYPE 1: A51 / ASM51 Assembler
  D:\KEIL\C51\LIB\C51L.LIB (?C?PLDIDATA)
         COMMENT TYPE 1: A51 / ASM51 Assembler
  D:\KEIL\C51\LIB\C51L.LIB (?C?PLDXDATA)
         COMMENT TYPE 1: A51 / ASM51 Assembler
  D:\KEIL\C51\LIB\C51L.LIB (?C?PLDPDATA)
         COMMENT TYPE 1: A51 / ASM51 Assembler
  D:\KEIL\C51\LIB\C51L.LIB (?C?PLDCODE)
         COMMENT TYPE 1: A51 / ASM51 Assembler


ACTIVE MEMORY CLASSES OF MODULE:  .\BUILD\STC8H8K64U\MDK (SEEKFREE_PRINTF)

BASE        START       END         USED      MEMORY CLASS
==========================================================
C:000000H   C:000000H   C:00FFFFH   002F58H   CODE
X:000000H   X:000000H   X:00FFFFH   0002FFH   XDATA
C:000000H   C:000000H   C:00FFFFH   000E90H   CONST
I:000000H   I:000000H   I:0000FFH   000001H   IDATA
I:000000H   I:000000H   I:00007FH   000008H   DATA


MEMORY MAP OF MODULE:  .\BUILD\STC8H8K64U\MDK (SEEKFREE_PRINTF)


START     STOP      LENGTH    ALIGN  RELOC    MEMORY CLASS   SEGMENT NAME
LX51 LINKER/LOCATER V4.66.97.0                                                        05/09/2022  19:31:19  PAGE 4


=========================================================================

* * * * * * * * * * *   D A T A   M E M O R Y   * * * * * * * * * * * * *
000000H   000007H   000008H   ---    AT..     DATA           "REG BANK 0"
000008H   000008H   000001H   BYTE   UNIT     IDATA          ?STACK

* * * * * * * * * * *   C O D E   M E M O R Y   * * * * * * * * * * * * *
000000H   000002H   000003H   ---    OFFS..   CODE           ?CO??C_STARTUP?0
000003H   000005H   000003H   BYTE   OFFS..   CODE           ?ISR?00003
000006H   000009H   000004H   BYTE   UNIT     CODE           ?PR?INT2_ISR?ISR
00000AH   00000AH   000001H   BYTE   UNIT     CODE           ?PR?INT1_ISR?ISR
00000BH   00000DH   000003H   BYTE   OFFS..   CODE           ?ISR?0000B
00000EH   000011H   000004H   BYTE   UNIT     CODE           ?PR?INT3_ISR?ISR
000012H   000012H   000001H   BYTE   UNIT     CODE           ?PR?TM0_ISR?ISR
000013H   000015H   000003H   BYTE   OFFS..   CODE           ?ISR?00013
000016H   000019H   000004H   BYTE   UNIT     CODE           ?PR?INT4_ISR?ISR
00001AH   00001AH   000001H   ---    ---      **GAP**
00001BH   00001DH   000003H   BYTE   OFFS..   CODE           ?ISR?0001B
00001EH   000021H   000004H   BYTE   UNIT     CODE           ?PR?TM2_ISR?ISR
000022H   000022H   000001H   ---    ---      **GAP**
000023H   000025H   000003H   BYTE   OFFS..   CODE           ?ISR?00023
000026H   000042H   00001DH   BYTE   UNIT     CODE           ?PR?_DELAY_MS?ZF_DELAY
000043H   000045H   000003H   BYTE   OFFS..   CODE           ?ISR?00043
000046H   000052H   00000DH   BYTE   UNIT     CODE           ?PR?_SPI_MOSI?ZF_SPI
000053H   000055H   000003H   BYTE   OFFS..   CODE           ?ISR?00053
000056H   000058H   000003H   BYTE   UNIT     CODE           ?PR?DISABLEGLOBALIRQ?BOARD
000059H   00005AH   000002H   ---    ---      **GAP**
00005BH   00005DH   000003H   BYTE   OFFS..   CODE           ?ISR?0005B
00005EH   000060H   000003H   BYTE   UNIT     CODE           ?PR?ENABLEGLOBALIRQ?BOARD
000061H   000062H   000002H   ---    ---      **GAP**
000063H   000065H   000003H   BYTE   OFFS..   CODE           ?ISR?00063
000066H   000080H   00001BH   BYTE   UNIT     CODE           ?PR?TM1_ISR?ISR
000081H   000082H   000002H   ---    ---      **GAP**
000083H   000085H   000003H   BYTE   OFFS..   CODE           ?ISR?00083
000086H   000088H   000003H   BYTE   UNIT     CODE           ?PR?INT0_ISR?ISR
000089H   00008AH   000002H   ---    ---      **GAP**
00008BH   00008DH   000003H   BYTE   OFFS..   CODE           ?ISR?0008B
00008EH   000092H   000005H   ---    ---      **GAP**
000093H   000095H   000003H   BYTE   OFFS..   CODE           ?ISR?00093
000096H   00009AH   000005H   ---    ---      **GAP**
00009BH   00009DH   000003H   BYTE   OFFS..   CODE           ?ISR?0009B
00009EH   0000A2H   000005H   ---    ---      **GAP**
0000A3H   0000A5H   000003H   BYTE   OFFS..   CODE           ?ISR?000A3
0000A6H   0009C8H   000923H   BYTE   UNIT     CODE           ?C?LIB_CODE
0009C9H   000DD0H   000408H   BYTE   UNIT     CODE           ?PR?M_SPEED_CHANGE?MAIN
000DD1H   00115DH   00038DH   BYTE   UNIT     CODE           ?PR?_GPIO_MODE?ZF_GPIO
00115EH   001421H   0002C4H   BYTE   UNIT     CODE           ?PR?GET_CLK?BOARD
001422H   0016C3H   0002A2H   BYTE   UNIT     CODE           ?PR?_PWM_INIT?ZF_PWM
0016C4H   0018F2H   00022FH   BYTE   UNIT     CODE           ?PR?SIGN_CROSSING?MAIN
0018F3H   001AFDH   00020BH   BYTE   UNIT     CODE           ?PR?LCD_INIT?SEEKFREE_18TFT
001AFEH   001CD0H   0001D3H   BYTE   UNIT     CODE           ?PR?_UART_INIT?ZF_UART
001CD1H   001E9DH   0001CDH   BYTE   UNIT     CODE           ?PR?MAIN?MAIN
001E9EH   00202EH   000191H   BYTE   UNIT     CODE           ?PR?_PWM_SET_GPIO?ZF_PWM
00202FH   00216DH   00013FH   BYTE   UNIT     CODE           ?PR?_LCD_SHOWINT16?SEEKFREE_18TFT
00216EH   002280H   000113H   BYTE   UNIT     CODE           ?PR?_PWM_DUTY?ZF_PWM
002281H   002382H   000102H   BYTE   UNIT     CODE           ?PR?STRAIGHT_S_LINE?MAIN
002383H   002471H   0000EFH   BYTE   UNIT     CODE           ?PR?_LCD_SHOWCHAR?SEEKFREE_18TFT
002472H   00252AH   0000B9H   BYTE   UNIT     CODE           ?PR?_SPI_INIT?ZF_SPI
00252BH   0025DAH   0000B0H   BYTE   UNIT     CODE           ?PR?SHOWDATA?MAIN
0025DBH   002689H   0000AFH   BYTE   UNIT     CODE           ?C_INITSEG
00268AH   002728H   00009FH   BYTE   UNIT     CODE           ?PR?KEYBOARD?MAIN
002729H   0027B5H   00008DH   BYTE   UNIT     CODE           ?PR?_PIT_TIMER_MS?ZF_TIM
0027B6H   002841H   00008CH   BYTE   UNIT     CODE           ?C_C51STARTUP
002842H   0028CBH   00008AH   BYTE   UNIT     CODE           ?PR?TURN?MAIN
0028CCH   002952H   000087H   BYTE   UNIT     CODE           ?PR?_STRNCMP?STRNCMP
LX51 LINKER/LOCATER V4.66.97.0                                                        05/09/2022  19:31:19  PAGE 5


002953H   0029C8H   000076H   BYTE   UNIT     CODE           ?PR?_LCD_SHOWSTR?SEEKFREE_18TFT
0029C9H   002A3AH   000072H   BYTE   UNIT     CODE           ?PR?DELAY_INIT?ZF_DELAY
002A3BH   002AACH   000072H   BYTE   UNIT     CODE           ?PR?UART4_ISR?ISR
002AADH   002B0DH   000061H   BYTE   UNIT     CODE           ?PR?_LCD_SET_REGION?SEEKFREE_18TFT
002B0EH   002B69H   00005CH   BYTE   UNIT     CODE           ?PR?BOARD_INIT?BOARD
002B6AH   002BC4H   00005BH   BYTE   UNIT     CODE           ?PR?_LCD_CLEAR?SEEKFREE_18TFT
002BC5H   002C13H   00004FH   BYTE   UNIT     CODE           ?PR?UART1_ISR?ISR
002C14H   002C60H   00004DH   BYTE   UNIT     CODE           ?PR?CCD_COLLECT?SEEKFREE_TSL1401
002C61H   002CA9H   000049H   BYTE   UNIT     CODE           ?PR?_IAP_READ_BYTES?ZF_EEPROM
002CAAH   002CF2H   000049H   BYTE   UNIT     CODE           ?PR?_IAP_WRITE_BYTES?ZF_EEPROM
002CF3H   002D37H   000045H   BYTE   UNIT     CODE           ?PR?READ_HW?ISR
002D38H   002D7BH   000044H   BYTE   UNIT     CODE           ?C?LDIV
002D7CH   002DBBH   000040H   BYTE   UNIT     CODE           ?PR?BLUETOOTH_CH9141_CHECK_RESPONSE?SEEKFREE_BLUETOOTH_CH9
                                                             -141
002DBCH   002DF9H   00003EH   BYTE   UNIT     CODE           ?PR?TM4_ISR?ISR
002DFAH   002E2EH   000035H   BYTE   UNIT     CODE           ?PR?BLUETOOTH_CH9141_UART_CALLBACK?SEEKFREE_BLUETOOTH_CH91
                                                             -41
002E2FH   002E5FH   000031H   BYTE   UNIT     CODE           ?PR?_ADC_ONCE?ZF_ADC
002E60H   002E82H   000023H   BYTE   UNIT     CODE           ?PR?_LCD_WRITEDATA_16BIT?SEEKFREE_18TFT
002E83H   002EA4H   000022H   BYTE   UNIT     CODE           ?PR?UART2_ISR?ISR
002EA5H   002EC6H   000022H   BYTE   UNIT     CODE           ?PR?UART3_ISR?ISR
002EC7H   002EE4H   00001EH   BYTE   UNIT     CODE           ?PR?IAP_SET_TPS?ZF_EEPROM
002EE5H   002F02H   00001EH   BYTE   UNIT     CODE           ?PR?TM3_ISR?ISR
002F03H   002F1DH   00001BH   BYTE   UNIT     CODE           ?PR?WRITEDATA?MAIN
002F1EH   002F38H   00001BH   BYTE   UNIT     CODE           ?PR?READDATA?MAIN
002F39H   002F48H   000010H   BYTE   UNIT     CODE           ?PR?_IAP_ERASE_PAGE?ZF_EEPROM
002F49H   002F52H   00000AH   BYTE   UNIT     CODE           ?PR?_LCD_WRITEINDEX?SEEKFREE_18TFT
002F53H   002F5CH   00000AH   BYTE   UNIT     CODE           ?PR?_LCD_WRITEDATA?SEEKFREE_18TFT
002F5DH   002F63H   000007H   BYTE   UNIT     CODE           ?PR?WIRELESS_UART_CALLBACK?SEEKFREE_WIRELESS
002F64H   002F6AH   000007H   BYTE   UNIT     CODE           ?PR?WIRELESS_CH573_CALLBACK?SEEKFREE_WIRELESS_CH573
002F6BH   002F70H   000006H   BYTE   UNIT     CODE           ?PR?IAP_INIT?ZF_EEPROM
002F71H   003D78H   000E08H   BYTE   UNIT     CONST          ?CO?SEEKFREE_FONT
003D79H   003DFAH   000082H   BYTE   UNIT     CONST          ?CO?SEEKFREE_BLUETOOTH_CH9141
003DFBH   003E00H   000006H   BYTE   UNIT     CONST          ?CO?MAIN

* * * * * * * * * * *  X D A T A   M E M O R Y  * * * * * * * * * * * * *
000000H   000100H   000101H   BYTE   UNIT     XDATA          ?XD?SEEKFREE_TSL1401
000101H   0001CDH   0000CDH   BYTE   UNIT     XDATA          ?XD?ZF_UART
0001CEH   00026CH   00009FH   BYTE   UNIT     XDATA          ?XD?MAIN
00026DH   0002A1H   000035H   BYTE   UNIT     XDATA          ?XD?SEEKFREE_BLUETOOTH_CH9141
0002A2H   0002CCH   00002BH   BYTE   UNIT     XDATA          _XDATA_GROUP_
0002CDH   0002D8H   00000CH   BYTE   UNIT     XDATA          ?XD?SEEKFREE_ICM20602
0002D9H   0002E4H   00000CH   BYTE   UNIT     XDATA          ?XD?SEEKFREE_MPU6050
0002E5H   0002EEH   00000AH   BYTE   UNIT     XDATA          ?XD?SEEKFREE_VIRSCO
0002EFH   0002F4H   000006H   BYTE   UNIT     XDATA          ?XD?SEEKFREE_IIC
0002F5H   0002F8H   000004H   BYTE   UNIT     XDATA          ?XD?BOARD
0002F9H   0002FCH   000004H   BYTE   UNIT     XDATA          ?XD?ZF_DELAY
0002FDH   0002FDH   000001H   BYTE   UNIT     XDATA          ?XD?COMMON
0002FEH   0002FEH   000001H   BYTE   UNIT     XDATA          ?XD?ISR

* * * * * * * * *   R E M O V E D     S E G M E N T S   * * * * * * * *
   *DEL*:           0001B6H   BYTE   UNIT     CODE           ?PR?_NUMBER_CONVERSION_ASCII?SEEKFREE_PRINTF
   *DEL*:           000013H   BYTE   UNIT     XDATA          ?XD?_NUMBER_CONVERSION_ASCII?SEEKFREE_PRINTF
   *DEL*:           0000F9H   BYTE   UNIT     CODE           ?PR?_PRINTF_REVERSE_ORDER?SEEKFREE_PRINTF
   *DEL*:           00000CH   BYTE   UNIT     XDATA          ?XD?_PRINTF_REVERSE_ORDER?SEEKFREE_PRINTF
   *DEL*:           0005A1H   BYTE   UNIT     CODE           ?PR?_ZF_SPRINTF?SEEKFREE_PRINTF
   *DEL*:           00005CH   BYTE   UNIT     XDATA          ?XD?_ZF_SPRINTF?SEEKFREE_PRINTF
   *DEL*:           000011H   BYTE   UNIT     CODE           ?PR?_PUTCHAR?BOARD
   *DEL*:           000001H   BYTE   UNIT     XDATA          ?XD?_PUTCHAR?BOARD
   *DEL*:           00004FH   BYTE   UNIT     CODE           ?PR?_ADC_INIT?ZF_ADC
   *DEL*:           00006EH   BYTE   UNIT     CODE           ?PR?_DELAY_US?ZF_DELAY
   *DEL*:           000004H   BYTE   UNIT     XDATA          ?XD?_DELAY_US?ZF_DELAY
   *DEL*:           000004H   BYTE   UNIT     CODE           ?PR?IAP_IDLE?ZF_EEPROM
   *DEL*:           00000DH   BYTE   UNIT     CODE           ?PR?IAP_GET_CMD_STATE?ZF_EEPROM
   *DEL*:           0000E5H   BYTE   UNIT     CODE           ?PR?_EXTERN_IAP_WRITE_BYTES?ZF_EEPROM
LX51 LINKER/LOCATER V4.66.97.0                                                        05/09/2022  19:31:19  PAGE 6


   *DEL*:           000209H   BYTE   UNIT     XDATA          ?XD?_EXTERN_IAP_WRITE_BYTES?ZF_EEPROM
   *DEL*:           000034H   BYTE   UNIT     CODE           ?PR?_EXIT_INIT?ZF_EXTI
   *DEL*:           00005BH   BYTE   UNIT     CODE           ?PR?_GPIO_PULL_SET?ZF_GPIO
   *DEL*:           000013H   BYTE   UNIT     CODE           ?PR?_IIC_DELAY_US?ZF_IIC
   *DEL*:           000037H   BYTE   UNIT     CODE           ?PR?WAIT?ZF_IIC
   *DEL*:           000002H   BYTE   UNIT     XDATA          ?XD?WAIT?ZF_IIC
   *DEL*:           000017H   BYTE   UNIT     CODE           ?PR?START?ZF_IIC
   *DEL*:           000012H   BYTE   UNIT     CODE           ?PR?_SEND_DATA?ZF_IIC
   *DEL*:           000009H   BYTE   UNIT     CODE           ?PR?RECV_ACK?ZF_IIC
   *DEL*:           00000FH   BYTE   UNIT     CODE           ?PR?RECV_DATA?ZF_IIC
   *DEL*:           00001DH   BYTE   UNIT     CODE           ?PR?SEND_ACK?ZF_IIC
   *DEL*:           00000FH   BYTE   UNIT     CODE           ?PR?SEND_NAK?ZF_IIC
   *DEL*:           000009H   BYTE   UNIT     CODE           ?PR?STOP?ZF_IIC
   *DEL*:           000047H   BYTE   UNIT     CODE           ?PR?_IIC_INIT?ZF_IIC
   *DEL*:           000007H   BYTE   UNIT     XDATA          ?XD?_IIC_INIT?ZF_IIC
   *DEL*:           000058H   BYTE   UNIT     CODE           ?PR?_IIC_WRITE_REG?ZF_IIC
   *DEL*:           000001H   BYTE   UNIT     XDATA          ?XD?_IIC_WRITE_REG?ZF_IIC
   *DEL*:           00006DH   BYTE   UNIT     CODE           ?PR?_IIC_READ_REG?ZF_IIC
   *DEL*:           000005H   BYTE   UNIT     XDATA          ?XD?_IIC_READ_REG?ZF_IIC
   *DEL*:           00008AH   BYTE   UNIT     CODE           ?PR?_IIC_READ_REG_BYTES?ZF_IIC
   *DEL*:           000006H   BYTE   UNIT     XDATA          ?XD?_IIC_READ_REG_BYTES?ZF_IIC
   *DEL*:           000025H   BYTE   UNIT     CODE           ?PR?_IIC_CHANGE_PIN?ZF_IIC
   *DEL*:           000083H   BYTE   UNIT     CODE           ?PR?_NVIC_SETPRIORITY?ZF_NVIC
   *DEL*:           00014FH   BYTE   UNIT     CODE           ?PR?_PWM_FREQ?ZF_PWM
   *DEL*:           000010H   BYTE   UNIT     XDATA          ?XD?_PWM_FREQ?ZF_PWM
   *DEL*:           000083H   BYTE   UNIT     CODE           ?PR?_SPI_CHANGE_PIN?ZF_SPI
   *DEL*:           000004H   BYTE   UNIT     XDATA          ?XD?_SPI_CHANGE_PIN?ZF_SPI
   *DEL*:           00001BH   BYTE   UNIT     CODE           ?PR?_SPI_CHANGE_MODE?ZF_SPI
   *DEL*:           000042H   BYTE   UNIT     CODE           ?PR?_CTIMER_COUNT_INIT?ZF_TIM
   *DEL*:           000046H   BYTE   UNIT     CODE           ?PR?_CTIMER_COUNT_READ?ZF_TIM
   *DEL*:           000049H   BYTE   UNIT     CODE           ?PR?_CTIMER_COUNT_CLEAN?ZF_TIM
   *DEL*:           00004BH   BYTE   UNIT     CODE           ?PR?_UART_PUTCHAR?ZF_UART
   *DEL*:           000028H   BYTE   UNIT     CODE           ?PR?_UART_PUTBUFF?ZF_UART
   *DEL*:           000006H   BYTE   UNIT     XDATA          ?XD?_UART_PUTBUFF?ZF_UART
   *DEL*:           000028H   BYTE   UNIT     CODE           ?PR?_UART_PUTSTR?ZF_UART
   *DEL*:           000003H   BYTE   UNIT     XDATA          ?XD?_UART_PUTSTR?ZF_UART
   *DEL*:           000025H   BYTE   UNIT     CODE           ?PR?_LCD_WRITEINDEX_SIMSPI?SEEKFREE_18TFT
   *DEL*:           000034H   BYTE   UNIT     CODE           ?PR?_LCD_WRITEDATA_SIMSPI?SEEKFREE_18TFT
   *DEL*:           000028H   BYTE   UNIT     CODE           ?PR?_LCD_WRITEDATA_16BIT_SIMSPI?SEEKFREE_18TFT
   *DEL*:           000055H   BYTE   UNIT     CODE           ?PR?_LCD_SET_REGION_SIMSPI?SEEKFREE_18TFT
   *DEL*:           000008H   BYTE   UNIT     XDATA          ?XD?_LCD_SET_REGION_SIMSPI?SEEKFREE_18TFT
   *DEL*:           000047H   BYTE   UNIT     CODE           ?PR?_LCD_CLEAR_SIMSPI?SEEKFREE_18TFT
   *DEL*:           000002H   BYTE   UNIT     XDATA          ?XD?_LCD_CLEAR_SIMSPI?SEEKFREE_18TFT
   *DEL*:           0001BCH   BYTE   UNIT     CODE           ?PR?LCD_INIT_SIMSPI?SEEKFREE_18TFT
   *DEL*:           000042H   BYTE   UNIT     CODE           ?PR?_LCD_DRAWPOINT_SIMSPI?SEEKFREE_18TFT
   *DEL*:           000006H   BYTE   UNIT     XDATA          ?XD?_LCD_DRAWPOINT_SIMSPI?SEEKFREE_18TFT
   *DEL*:           0000DDH   BYTE   UNIT     CODE           ?PR?_LCD_SHOWCHAR_SIMSPI?SEEKFREE_18TFT
   *DEL*:           000006H   BYTE   UNIT     XDATA          ?XD?_LCD_SHOWCHAR_SIMSPI?SEEKFREE_18TFT
   *DEL*:           000076H   BYTE   UNIT     CODE           ?PR?_LCD_SHOWSTR_SIMSPI?SEEKFREE_18TFT
   *DEL*:           000009H   BYTE   UNIT     XDATA          ?XD?_LCD_SHOWSTR_SIMSPI?SEEKFREE_18TFT
   *DEL*:           0000C8H   BYTE   UNIT     CODE           ?PR?_LCD_SHOWINT8_SIMSPI?SEEKFREE_18TFT
   *DEL*:           000009H   BYTE   UNIT     XDATA          ?XD?_LCD_SHOWINT8_SIMSPI?SEEKFREE_18TFT
   *DEL*:           00007DH   BYTE   UNIT     CODE           ?PR?_LCD_SHOWUINT8_SIMSPI?SEEKFREE_18TFT
   *DEL*:           000008H   BYTE   UNIT     XDATA          ?XD?_LCD_SHOWUINT8_SIMSPI?SEEKFREE_18TFT
   *DEL*:           00013FH   BYTE   UNIT     CODE           ?PR?_LCD_SHOWINT16_SIMSPI?SEEKFREE_18TFT
   *DEL*:           00000CH   BYTE   UNIT     XDATA          ?XD?_LCD_SHOWINT16_SIMSPI?SEEKFREE_18TFT
   *DEL*:           0000BBH   BYTE   UNIT     CODE           ?PR?_LCD_SHOWUINT16_SIMSPI?SEEKFREE_18TFT
   *DEL*:           00000AH   BYTE   UNIT     XDATA          ?XD?_LCD_SHOWUINT16_SIMSPI?SEEKFREE_18TFT
   *DEL*:           0000EEH   BYTE   UNIT     CODE           ?PR?_LCD_SHOWINT32_SIMSPI?SEEKFREE_18TFT
   *DEL*:           00002CH   BYTE   UNIT     XDATA          ?XD?_LCD_SHOWINT32_SIMSPI?SEEKFREE_18TFT
   *DEL*:           000176H   BYTE   UNIT     CODE           ?PR?_LCD_SHOWFLOAT_SIMSPI?SEEKFREE_18TFT
   *DEL*:           00002FH   BYTE   UNIT     XDATA          ?XD?_LCD_SHOWFLOAT_SIMSPI?SEEKFREE_18TFT
   *DEL*:           000042H   BYTE   UNIT     CODE           ?PR?_LCD_DRAWPOINT?SEEKFREE_18TFT
   *DEL*:           000006H   BYTE   UNIT     XDATA          ?XD?_LCD_DRAWPOINT?SEEKFREE_18TFT
   *DEL*:           0000C8H   BYTE   UNIT     CODE           ?PR?_LCD_SHOWINT8?SEEKFREE_18TFT
LX51 LINKER/LOCATER V4.66.97.0                                                        05/09/2022  19:31:19  PAGE 7


   *DEL*:           000009H   BYTE   UNIT     XDATA          ?XD?_LCD_SHOWINT8?SEEKFREE_18TFT
   *DEL*:           00007DH   BYTE   UNIT     CODE           ?PR?_LCD_SHOWUINT8?SEEKFREE_18TFT
   *DEL*:           000008H   BYTE   UNIT     XDATA          ?XD?_LCD_SHOWUINT8?SEEKFREE_18TFT
   *DEL*:           0000BBH   BYTE   UNIT     CODE           ?PR?_LCD_SHOWUINT16?SEEKFREE_18TFT
   *DEL*:           00000AH   BYTE   UNIT     XDATA          ?XD?_LCD_SHOWUINT16?SEEKFREE_18TFT
   *DEL*:           0000EEH   BYTE   UNIT     CODE           ?PR?_LCD_SHOWINT32?SEEKFREE_18TFT
   *DEL*:           00002CH   BYTE   UNIT     XDATA          ?XD?_LCD_SHOWINT32?SEEKFREE_18TFT
   *DEL*:           000176H   BYTE   UNIT     CODE           ?PR?_LCD_SHOWFLOAT?SEEKFREE_18TFT
   *DEL*:           00002FH   BYTE   UNIT     XDATA          ?XD?_LCD_SHOWFLOAT?SEEKFREE_18TFT
   *DEL*:           00011BH   BYTE   UNIT     CODE           ?PR?_SHOWIMAGE?SEEKFREE_18TFT
   *DEL*:           00000BH   BYTE   UNIT     XDATA          ?XD?_SHOWIMAGE?SEEKFREE_18TFT
   *DEL*:           000006H   BYTE   UNIT     CONST          ?CO?SEEKFREE_18TFT
   *DEL*:           000010H   BYTE   UNIT     CODE           ?PR?_ENCODER_DELAY_US?SEEKFREE_ABSOLUTE_ENCODER
   *DEL*:           000026H   BYTE   UNIT     CODE           ?PR?_SIMSPI_WR_BYTE?SEEKFREE_ABSOLUTE_ENCODER
   *DEL*:           000011H   BYTE   UNIT     CODE           ?PR?_SIMSPI_W_REG_BYTE?SEEKFREE_ABSOLUTE_ENCODER
   *DEL*:           000015H   BYTE   UNIT     CODE           ?PR?_SIMSPI_R_REG_BYTE?SEEKFREE_ABSOLUTE_ENCODER
   *DEL*:           00002CH   BYTE   UNIT     CODE           ?PR?_ENCODER_SIMSPI_W_REG_BYTE?SEEKFREE_ABSOLUTE_ENCODER
   *DEL*:           000001H   BYTE   UNIT     XDATA          ?XD?_ENCODER_SIMSPI_W_REG_BYTE?SEEKFREE_ABSOLUTE_ENCODER
   *DEL*:           000032H   BYTE   UNIT     CODE           ?PR?_ENCODER_SIMSPI_R_REG_BYTE?SEEKFREE_ABSOLUTE_ENCODER
   *DEL*:           000003H   BYTE   UNIT     XDATA          ?XD?_ENCODER_SIMSPI_R_REG_BYTE?SEEKFREE_ABSOLUTE_ENCODER
   *DEL*:           000038H   BYTE   UNIT     CODE           ?PR?_SET_ZERO_POSITION_SIMSPI?SEEKFREE_ABSOLUTE_ENCODER
   *DEL*:           000002H   BYTE   UNIT     XDATA          ?XD?_SET_ZERO_POSITION_SIMSPI?SEEKFREE_ABSOLUTE_ENCODER
   *DEL*:           000021H   BYTE   UNIT     CODE           ?PR?ENCODER_ANGLE_SIMSPI?SEEKFREE_ABSOLUTE_ENCODER
   *DEL*:           000014H   BYTE   UNIT     CODE           ?PR?ENCODER_SELF4_CHECK?SEEKFREE_ABSOLUTE_ENCODER
   *DEL*:           000001H   BYTE   UNIT     XDATA          ?XD?ENCODER_SELF4_CHECK?SEEKFREE_ABSOLUTE_ENCODER
   *DEL*:           000010H   BYTE   UNIT     CODE           ?PR?ENCODER_INIT_SIMSPI?SEEKFREE_ABSOLUTE_ENCODER
   *DEL*:           000011H   BYTE   UNIT     CODE           ?PR?_SPI_WR_BYTE?SEEKFREE_ABSOLUTE_ENCODER
   *DEL*:           000019H   BYTE   UNIT     CODE           ?PR?_SPI_W_REG_BYTE?SEEKFREE_ABSOLUTE_ENCODER
   *DEL*:           000001H   BYTE   UNIT     XDATA          ?XD?_SPI_W_REG_BYTE?SEEKFREE_ABSOLUTE_ENCODER
   *DEL*:           00001DH   BYTE   UNIT     CODE           ?PR?_SPI_R_REG_BYTE?SEEKFREE_ABSOLUTE_ENCODER
   *DEL*:           000003H   BYTE   UNIT     XDATA          ?XD?_SPI_R_REG_BYTE?SEEKFREE_ABSOLUTE_ENCODER
   *DEL*:           00003FH   BYTE   UNIT     CODE           ?PR?_ENCODER_SPI_W_REG_BYTE?SEEKFREE_ABSOLUTE_ENCODER
   *DEL*:           000002H   BYTE   UNIT     XDATA          ?XD?_ENCODER_SPI_W_REG_BYTE?SEEKFREE_ABSOLUTE_ENCODER
   *DEL*:           00002EH   BYTE   UNIT     CODE           ?PR?_ENCODER_SPI_R_REG_BYTE?SEEKFREE_ABSOLUTE_ENCODER
   *DEL*:           000003H   BYTE   UNIT     XDATA          ?XD?_ENCODER_SPI_R_REG_BYTE?SEEKFREE_ABSOLUTE_ENCODER
   *DEL*:           000038H   BYTE   UNIT     CODE           ?PR?_SET_ZERO_POSITION_SPI?SEEKFREE_ABSOLUTE_ENCODER
   *DEL*:           000002H   BYTE   UNIT     XDATA          ?XD?_SET_ZERO_POSITION_SPI?SEEKFREE_ABSOLUTE_ENCODER
   *DEL*:           000041H   BYTE   UNIT     CODE           ?PR?ENCODER_ANGLE_SPI?SEEKFREE_ABSOLUTE_ENCODER
   *DEL*:           000002H   BYTE   UNIT     XDATA          ?XD?ENCODER_ANGLE_SPI?SEEKFREE_ABSOLUTE_ENCODER
   *DEL*:           000014H   BYTE   UNIT     CODE           ?PR?ENCODER_SELF5_CHECK?SEEKFREE_ABSOLUTE_ENCODER
   *DEL*:           000001H   BYTE   UNIT     XDATA          ?XD?ENCODER_SELF5_CHECK?SEEKFREE_ABSOLUTE_ENCODER
   *DEL*:           000026H   BYTE   UNIT     CODE           ?PR?ENCODER_INIT_SPI?SEEKFREE_ABSOLUTE_ENCODER
   *DEL*:           00001EH   BYTE   UNIT     CODE           ?PR?_BLUETOOTH_CH9141_SEND_AT_COMMAND?SEEKFREE_BLUETOOTH_C
                                                             -H9141
   *DEL*:           00005AH   BYTE   UNIT     CODE           ?PR?_BLUETOOTH_CH9141_SEND_AT_COMMAND_PARAMETER?SEEKFREE_B
                                                             -LUETOOTH_CH9141
   *DEL*:           000006H   BYTE   UNIT     XDATA          ?XD?_BLUETOOTH_CH9141_SEND_AT_COMMAND_PARAMETER?SEEKFREE_B
                                                             -LUETOOTH_CH9141
   *DEL*:           000016H   BYTE   UNIT     CODE           ?PR?BLUETOOTH_CH9141_ENTER_AT_MODE?SEEKFREE_BLUETOOTH_CH91
                                                             -41
   *DEL*:           000015H   BYTE   UNIT     CODE           ?PR?BLUETOOTH_CH9141_EXIT_AT_MODE?SEEKFREE_BLUETOOTH_CH914
                                                             -1
   *DEL*:           000029H   BYTE   UNIT     CODE           ?PR?BLUETOOTH_CH9141_RESET?SEEKFREE_BLUETOOTH_CH9141
   *DEL*:           00001CH   BYTE   UNIT     CODE           ?PR?BLUETOOTH_CH9141_GET_MAC_ADDRESS?SEEKFREE_BLUETOOTH_CH
                                                             -9141
   *DEL*:           00001EH   BYTE   UNIT     CODE           ?PR?_BLUETOOTH_CH9141_SET_TX_POWER?SEEKFREE_BLUETOOTH_CH91
                                                             -41
   *DEL*:           000001H   BYTE   UNIT     XDATA          ?XD?_BLUETOOTH_CH9141_SET_TX_POWER?SEEKFREE_BLUETOOTH_CH91
                                                             -41
   *DEL*:           00001EH   BYTE   UNIT     CODE           ?PR?_BLUETOOTH_CH9141_SET_MODE?SEEKFREE_BLUETOOTH_CH9141
   *DEL*:           000001H   BYTE   UNIT     XDATA          ?XD?_BLUETOOTH_CH9141_SET_MODE?SEEKFREE_BLUETOOTH_CH9141
   *DEL*:           000047H   BYTE   UNIT     CODE           ?PR?_BLUETOOTH_CH9141_GET_STATUS?SEEKFREE_BLUETOOTH_CH9141
   *DEL*:           000002H   BYTE   UNIT     XDATA          ?XD?_BLUETOOTH_CH9141_GET_STATUS?SEEKFREE_BLUETOOTH_CH9141
   *DEL*:           000047H   BYTE   UNIT     CODE           ?PR?_BLUETOOTH_CH9141_SET_NAME?SEEKFREE_BLUETOOTH_CH9141
   *DEL*:           000003H   BYTE   UNIT     XDATA          ?XD?_BLUETOOTH_CH9141_SET_NAME?SEEKFREE_BLUETOOTH_CH9141
LX51 LINKER/LOCATER V4.66.97.0                                                        05/09/2022  19:31:19  PAGE 8


   *DEL*:           000057H   BYTE   UNIT     CODE           ?PR?_BLUETOOTH_CH9141_SET_PASSWORD?SEEKFREE_BLUETOOTH_CH91
                                                             -41
   *DEL*:           000003H   BYTE   UNIT     XDATA          ?XD?_BLUETOOTH_CH9141_SET_PASSWORD?SEEKFREE_BLUETOOTH_CH91
                                                             -41
   *DEL*:           000029H   BYTE   UNIT     CODE           ?PR?_BLUETOOTH_CH9141_CONNECT?SEEKFREE_BLUETOOTH_CH9141
   *DEL*:           000003H   BYTE   UNIT     XDATA          ?XD?_BLUETOOTH_CH9141_CONNECT?SEEKFREE_BLUETOOTH_CH9141
   *DEL*:           000029H   BYTE   UNIT     CODE           ?PR?_BLUETOOTH_CH9141_DEFAULT_CONNECT?SEEKFREE_BLUETOOTH_C
                                                             -H9141
   *DEL*:           000003H   BYTE   UNIT     XDATA          ?XD?_BLUETOOTH_CH9141_DEFAULT_CONNECT?SEEKFREE_BLUETOOTH_C
                                                             -H9141
   *DEL*:           000083H   BYTE   UNIT     CODE           ?PR?BLUETOOTH_CH9141_GET_RSSI?SEEKFREE_BLUETOOTH_CH9141
   *DEL*:           000004H   BYTE   UNIT     XDATA          ?XD?BLUETOOTH_CH9141_GET_RSSI?SEEKFREE_BLUETOOTH_CH9141
   *DEL*:           000076H   BYTE   UNIT     CODE           ?PR?_BLUETOOTH_CH9141_SEND_BUFF?SEEKFREE_BLUETOOTH_CH9141
   *DEL*:           000007H   BYTE   UNIT     XDATA          ?XD?_BLUETOOTH_CH9141_SEND_BUFF?SEEKFREE_BLUETOOTH_CH9141
   *DEL*:           0000CCH   BYTE   UNIT     CODE           ?PR?_BLUETOOTH_CH9141_INIT?SEEKFREE_BLUETOOTH_CH9141
   *DEL*:           000004H   BYTE   UNIT     XDATA          ?XD?_BLUETOOTH_CH9141_INIT?SEEKFREE_BLUETOOTH_CH9141
   *DEL*:           000025H   BYTE   UNIT     CODE           ?PR?ICM20602_SELF1_CHECK?SEEKFREE_ICM20602
   *DEL*:           000001H   BYTE   UNIT     XDATA          ?XD?ICM20602_SELF1_CHECK?SEEKFREE_ICM20602
   *DEL*:           000066H   BYTE   UNIT     CODE           ?PR?ICM20602_INIT_SIMIIC?SEEKFREE_ICM20602
   *DEL*:           00004DH   BYTE   UNIT     CODE           ?PR?GET_ICM20602_ACCDATA_SIMIIC?SEEKFREE_ICM20602
   *DEL*:           000006H   BYTE   UNIT     XDATA          ?XD?GET_ICM20602_ACCDATA_SIMIIC?SEEKFREE_ICM20602
   *DEL*:           00004DH   BYTE   UNIT     CODE           ?PR?GET_ICM20602_GYRO_SIMIIC?SEEKFREE_ICM20602
   *DEL*:           000006H   BYTE   UNIT     XDATA          ?XD?GET_ICM20602_GYRO_SIMIIC?SEEKFREE_ICM20602
   *DEL*:           000028H   BYTE   UNIT     CODE           ?PR?_ICM_SIMSPI_WR_BYTE?SEEKFREE_ICM20602
   *DEL*:           00000DH   BYTE   UNIT     CODE           ?PR?_ICM_SIMSPI_W_REG_BYTE?SEEKFREE_ICM20602
   *DEL*:           00000FH   BYTE   UNIT     CODE           ?PR?_ICM_SIMSPI_R_REG_BYTE?SEEKFREE_ICM20602
   *DEL*:           000040H   BYTE   UNIT     CODE           ?PR?_ICM_SIMSPI_R_REG_BYTES?SEEKFREE_ICM20602
   *DEL*:           000005H   BYTE   UNIT     XDATA          ?XD?_ICM_SIMSPI_R_REG_BYTES?SEEKFREE_ICM20602
   *DEL*:           000014H   BYTE   UNIT     CODE           ?PR?ICM20602_SELF4_CHECK?SEEKFREE_ICM20602
   *DEL*:           000001H   BYTE   UNIT     XDATA          ?XD?ICM20602_SELF4_CHECK?SEEKFREE_ICM20602
   *DEL*:           000053H   BYTE   UNIT     CODE           ?PR?ICM20602_INIT_SIMSPI?SEEKFREE_ICM20602
   *DEL*:           000001H   BYTE   UNIT     XDATA          ?XD?ICM20602_INIT_SIMSPI?SEEKFREE_ICM20602
   *DEL*:           000048H   BYTE   UNIT     CODE           ?PR?GET_ICM20602_ACCDATA_SIMSPI?SEEKFREE_ICM20602
   *DEL*:           000006H   BYTE   UNIT     XDATA          ?XD?GET_ICM20602_ACCDATA_SIMSPI?SEEKFREE_ICM20602
   *DEL*:           000048H   BYTE   UNIT     CODE           ?PR?GET_ICM20602_GYRO_SIMSPI?SEEKFREE_ICM20602
   *DEL*:           000006H   BYTE   UNIT     XDATA          ?XD?GET_ICM20602_GYRO_SIMSPI?SEEKFREE_ICM20602
   *DEL*:           000011H   BYTE   UNIT     CODE           ?PR?_ICM_SPI_WR_BYTE?SEEKFREE_ICM20602
   *DEL*:           000015H   BYTE   UNIT     CODE           ?PR?_ICM_SPI_W_REG_BYTE?SEEKFREE_ICM20602
   *DEL*:           000001H   BYTE   UNIT     XDATA          ?XD?_ICM_SPI_W_REG_BYTE?SEEKFREE_ICM20602
   *DEL*:           00001DH   BYTE   UNIT     CODE           ?PR?_ICM_SPI_R_REG_BYTE?SEEKFREE_ICM20602
   *DEL*:           000003H   BYTE   UNIT     XDATA          ?XD?_ICM_SPI_R_REG_BYTE?SEEKFREE_ICM20602
   *DEL*:           000052H   BYTE   UNIT     CODE           ?PR?_ICM_SPI_R_REG_BYTES?SEEKFREE_ICM20602
   *DEL*:           000007H   BYTE   UNIT     XDATA          ?XD?_ICM_SPI_R_REG_BYTES?SEEKFREE_ICM20602
   *DEL*:           000022H   BYTE   UNIT     CODE           ?PR?ICM20602_SELF3_CHECK?SEEKFREE_ICM20602
   *DEL*:           000001H   BYTE   UNIT     XDATA          ?XD?ICM20602_SELF3_CHECK?SEEKFREE_ICM20602
   *DEL*:           000076H   BYTE   UNIT     CODE           ?PR?ICM20602_INIT_SPI?SEEKFREE_ICM20602
   *DEL*:           000001H   BYTE   UNIT     XDATA          ?XD?ICM20602_INIT_SPI?SEEKFREE_ICM20602
   *DEL*:           000048H   BYTE   UNIT     CODE           ?PR?GET_ICM20602_ACCDATA_SPI?SEEKFREE_ICM20602
   *DEL*:           000006H   BYTE   UNIT     XDATA          ?XD?GET_ICM20602_ACCDATA_SPI?SEEKFREE_ICM20602
   *DEL*:           000048H   BYTE   UNIT     CODE           ?PR?GET_ICM20602_GYRO_SPI?SEEKFREE_ICM20602
   *DEL*:           000006H   BYTE   UNIT     XDATA          ?XD?GET_ICM20602_GYRO_SPI?SEEKFREE_ICM20602
   *DEL*:           000001H   BYTE   UNIT     CODE           ?PR?SIMIIC_INIT?SEEKFREE_IIC
   *DEL*:           000015H   BYTE   UNIT     CODE           ?PR?SIMIIC_DELAY?SEEKFREE_IIC
   *DEL*:           00000FH   BYTE   UNIT     CODE           ?PR?SIMIIC_START?SEEKFREE_IIC
   *DEL*:           00000AH   BYTE   UNIT     CODE           ?PR?SIMIIC_STOP?SEEKFREE_IIC
   *DEL*:           00001AH   BYTE   UNIT     CODE           ?PR?_SIMIIC_SENDACK?SEEKFREE_IIC
   *DEL*:           000016H   BYTE   UNIT     CODE           ?PR?SCCB_WAITACK?SEEKFREE_IIC
   *DEL*:           000026H   BYTE   UNIT     CODE           ?PR?_SEND_CH?SEEKFREE_IIC
   *DEL*:           000035H   BYTE   UNIT     CODE           ?PR?_READ_CH?SEEKFREE_IIC
   *DEL*:           00001CH   BYTE   UNIT     CODE           ?PR?_SIMIIC_WRITE_REG?SEEKFREE_IIC
   *DEL*:           000001H   BYTE   UNIT     XDATA          ?XD?_SIMIIC_WRITE_REG?SEEKFREE_IIC
   *DEL*:           00003BH   BYTE   UNIT     CODE           ?PR?_SIMIIC_READ_REG?SEEKFREE_IIC
   *DEL*:           000001H   BYTE   UNIT     XDATA          ?XD?_SIMIIC_READ_REG?SEEKFREE_IIC
   *DEL*:           000079H   BYTE   UNIT     CODE           ?PR?_SIMIIC_READ_REGS?SEEKFREE_IIC
   *DEL*:           000007H   BYTE   UNIT     XDATA          ?XD?_SIMIIC_READ_REGS?SEEKFREE_IIC
LX51 LINKER/LOCATER V4.66.97.0                                                        05/09/2022  19:31:19  PAGE 9


   *DEL*:           000025H   BYTE   UNIT     CODE           ?PR?_IPS114_WRITEINDEX_SIMSPI?SEEKFREE_IPS114_SPI
   *DEL*:           00002FH   BYTE   UNIT     CODE           ?PR?_IPS114_WRITEDATA_SIMSPI?SEEKFREE_IPS114_SPI
   *DEL*:           00002FH   BYTE   UNIT     CODE           ?PR?_IPS114_WRITEDATAI_16BIT_SIMSPI?SEEKFREE_IPS114_SPI
   *DEL*:           00013CH   BYTE   UNIT     CODE           ?PR?IPS114_INIT_SIMSPI?SEEKFREE_IPS114_SPI
   *DEL*:           000048H   BYTE   UNIT     CODE           ?PR?_IPS114_SET_REGION_SIMSPI?SEEKFREE_IPS114_SPI
   *DEL*:           000008H   BYTE   UNIT     XDATA          ?XD?_IPS114_SET_REGION_SIMSPI?SEEKFREE_IPS114_SPI
   *DEL*:           00005BH   BYTE   UNIT     CODE           ?PR?_IPS114_CLEAR_SIMSPI?SEEKFREE_IPS114_SPI
   *DEL*:           000004H   BYTE   UNIT     XDATA          ?XD?_IPS114_CLEAR_SIMSPI?SEEKFREE_IPS114_SPI
   *DEL*:           000042H   BYTE   UNIT     CODE           ?PR?_IPS114_DRAWPOINT_SIMSPI?SEEKFREE_IPS114_SPI
   *DEL*:           000006H   BYTE   UNIT     XDATA          ?XD?_IPS114_DRAWPOINT_SIMSPI?SEEKFREE_IPS114_SPI
   *DEL*:           0000E0H   BYTE   UNIT     CODE           ?PR?_IPS114_SHOWCHAR_SIMSPI?SEEKFREE_IPS114_SPI
   *DEL*:           000006H   BYTE   UNIT     XDATA          ?XD?_IPS114_SHOWCHAR_SIMSPI?SEEKFREE_IPS114_SPI
   *DEL*:           000076H   BYTE   UNIT     CODE           ?PR?_IPS114_SHOWSTR_SIMSPI?SEEKFREE_IPS114_SPI
   *DEL*:           000009H   BYTE   UNIT     XDATA          ?XD?_IPS114_SHOWSTR_SIMSPI?SEEKFREE_IPS114_SPI
   *DEL*:           0000C8H   BYTE   UNIT     CODE           ?PR?_IPS114_SHOWINT8_SIMSPI?SEEKFREE_IPS114_SPI
   *DEL*:           000009H   BYTE   UNIT     XDATA          ?XD?_IPS114_SHOWINT8_SIMSPI?SEEKFREE_IPS114_SPI
   *DEL*:           00007DH   BYTE   UNIT     CODE           ?PR?_IPS114_SHOWUINT8_SIMSPI?SEEKFREE_IPS114_SPI
   *DEL*:           000008H   BYTE   UNIT     XDATA          ?XD?_IPS114_SHOWUINT8_SIMSPI?SEEKFREE_IPS114_SPI
   *DEL*:           00013FH   BYTE   UNIT     CODE           ?PR?_IPS114_SHOWINT16_SIMSPI?SEEKFREE_IPS114_SPI
   *DEL*:           00000CH   BYTE   UNIT     XDATA          ?XD?_IPS114_SHOWINT16_SIMSPI?SEEKFREE_IPS114_SPI
   *DEL*:           0000BBH   BYTE   UNIT     CODE           ?PR?_IPS114_SHOWUINT16_SIMSPI?SEEKFREE_IPS114_SPI
   *DEL*:           00000AH   BYTE   UNIT     XDATA          ?XD?_IPS114_SHOWUINT16_SIMSPI?SEEKFREE_IPS114_SPI
   *DEL*:           0000EEH   BYTE   UNIT     CODE           ?PR?_IPS114_SHOWINT32_SIMSPI?SEEKFREE_IPS114_SPI
   *DEL*:           00002CH   BYTE   UNIT     XDATA          ?XD?_IPS114_SHOWINT32_SIMSPI?SEEKFREE_IPS114_SPI
   *DEL*:           000176H   BYTE   UNIT     CODE           ?PR?_IPS114_SHOWFLOAT_SIMSPI?SEEKFREE_IPS114_SPI
   *DEL*:           00002FH   BYTE   UNIT     XDATA          ?XD?_IPS114_SHOWFLOAT_SIMSPI?SEEKFREE_IPS114_SPI
   *DEL*:           00000AH   BYTE   UNIT     CODE           ?PR?_IPS114_WRITEINDEX?SEEKFREE_IPS114_SPI
   *DEL*:           00000AH   BYTE   UNIT     CODE           ?PR?_IPS114_WRITEDATA?SEEKFREE_IPS114_SPI
   *DEL*:           00002AH   BYTE   UNIT     CODE           ?PR?_IPS114_WRITEDATA_16BIT?SEEKFREE_IPS114_SPI
   *DEL*:           000002H   BYTE   UNIT     XDATA          ?XD?_IPS114_WRITEDATA_16BIT?SEEKFREE_IPS114_SPI
   *DEL*:           000166H   BYTE   UNIT     CODE           ?PR?IPS114_INIT?SEEKFREE_IPS114_SPI
   *DEL*:           000051H   BYTE   UNIT     CODE           ?PR?_IPS114_SET_REGION?SEEKFREE_IPS114_SPI
   *DEL*:           000008H   BYTE   UNIT     XDATA          ?XD?_IPS114_SET_REGION?SEEKFREE_IPS114_SPI
   *DEL*:           000071H   BYTE   UNIT     CODE           ?PR?_IPS114_CLEAR?SEEKFREE_IPS114_SPI
   *DEL*:           000006H   BYTE   UNIT     XDATA          ?XD?_IPS114_CLEAR?SEEKFREE_IPS114_SPI
   *DEL*:           000042H   BYTE   UNIT     CODE           ?PR?_IPS114_DRAWPOINT?SEEKFREE_IPS114_SPI
   *DEL*:           000006H   BYTE   UNIT     XDATA          ?XD?_IPS114_DRAWPOINT?SEEKFREE_IPS114_SPI
   *DEL*:           0000F2H   BYTE   UNIT     CODE           ?PR?_IPS114_SHOWCHAR?SEEKFREE_IPS114_SPI
   *DEL*:           000008H   BYTE   UNIT     XDATA          ?XD?_IPS114_SHOWCHAR?SEEKFREE_IPS114_SPI
   *DEL*:           000076H   BYTE   UNIT     CODE           ?PR?_IPS114_SHOWSTR?SEEKFREE_IPS114_SPI
   *DEL*:           000009H   BYTE   UNIT     XDATA          ?XD?_IPS114_SHOWSTR?SEEKFREE_IPS114_SPI
   *DEL*:           0000C8H   BYTE   UNIT     CODE           ?PR?_IPS114_SHOWINT8?SEEKFREE_IPS114_SPI
   *DEL*:           000009H   BYTE   UNIT     XDATA          ?XD?_IPS114_SHOWINT8?SEEKFREE_IPS114_SPI
   *DEL*:           00007DH   BYTE   UNIT     CODE           ?PR?_IPS114_SHOWUINT8?SEEKFREE_IPS114_SPI
   *DEL*:           000008H   BYTE   UNIT     XDATA          ?XD?_IPS114_SHOWUINT8?SEEKFREE_IPS114_SPI
   *DEL*:           00013FH   BYTE   UNIT     CODE           ?PR?_IPS114_SHOWINT16?SEEKFREE_IPS114_SPI
   *DEL*:           00000CH   BYTE   UNIT     XDATA          ?XD?_IPS114_SHOWINT16?SEEKFREE_IPS114_SPI
   *DEL*:           0000BBH   BYTE   UNIT     CODE           ?PR?_IPS114_SHOWUINT16?SEEKFREE_IPS114_SPI
   *DEL*:           00000AH   BYTE   UNIT     XDATA          ?XD?_IPS114_SHOWUINT16?SEEKFREE_IPS114_SPI
   *DEL*:           0000EEH   BYTE   UNIT     CODE           ?PR?_IPS114_SHOWINT32?SEEKFREE_IPS114_SPI
   *DEL*:           00002CH   BYTE   UNIT     XDATA          ?XD?_IPS114_SHOWINT32?SEEKFREE_IPS114_SPI
   *DEL*:           000176H   BYTE   UNIT     CODE           ?PR?_IPS114_SHOWFLOAT?SEEKFREE_IPS114_SPI
   *DEL*:           00002FH   BYTE   UNIT     XDATA          ?XD?_IPS114_SHOWFLOAT?SEEKFREE_IPS114_SPI
   *DEL*:           000006H   BYTE   UNIT     CONST          ?CO?SEEKFREE_IPS114_SPI
   *DEL*:           00002AH   BYTE   UNIT     CODE           ?PR?MPU6050_SELF1_CHECK?SEEKFREE_MPU6050
   *DEL*:           000049H   BYTE   UNIT     CODE           ?PR?MPU6050_INIT?SEEKFREE_MPU6050
   *DEL*:           00004DH   BYTE   UNIT     CODE           ?PR?MPU6050_GET_ACCDATA?SEEKFREE_MPU6050
   *DEL*:           000006H   BYTE   UNIT     XDATA          ?XD?MPU6050_GET_ACCDATA?SEEKFREE_MPU6050
   *DEL*:           00004DH   BYTE   UNIT     CODE           ?PR?MPU6050_GET_GYRO?SEEKFREE_MPU6050
   *DEL*:           000006H   BYTE   UNIT     XDATA          ?XD?MPU6050_GET_GYRO?SEEKFREE_MPU6050
   *DEL*:           00002AH   BYTE   UNIT     CODE           ?PR?_OLED_WRDAT?SEEKFREE_OLED
   *DEL*:           00002DH   BYTE   UNIT     CODE           ?PR?_OLED_WRCMD?SEEKFREE_OLED
   *DEL*:           000082H   BYTE   UNIT     CODE           ?PR?_OLED_HEXASCII?SEEKFREE_OLED
   *DEL*:           000007H   BYTE   UNIT     XDATA          ?XD?_OLED_HEXASCII?SEEKFREE_OLED
   *DEL*:           0000A6H   BYTE   UNIT     CODE           ?PR?OLED_INIT?SEEKFREE_OLED
LX51 LINKER/LOCATER V4.66.97.0                                                        05/09/2022  19:31:19  PAGE 10


   *DEL*:           000014H   BYTE   UNIT     CODE           ?PR?_OLED_SET_POS?SEEKFREE_OLED
   *DEL*:           000037H   BYTE   UNIT     CODE           ?PR?_OLED_FILL?SEEKFREE_OLED
   *DEL*:           00001EH   BYTE   UNIT     CODE           ?PR?_OLED_PUTPIXEL?SEEKFREE_OLED
   *DEL*:           00001EH   BYTE   UNIT     CODE           ?PR?_OLED_CLRPIXEL?SEEKFREE_OLED
   *DEL*:           000090H   BYTE   UNIT     CODE           ?PR?_OLED_P6X8STR?SEEKFREE_OLED
   *DEL*:           000007H   BYTE   UNIT     XDATA          ?XD?_OLED_P6X8STR?SEEKFREE_OLED
   *DEL*:           0000CCH   BYTE   UNIT     CODE           ?PR?_OLED_P8X16STR?SEEKFREE_OLED
   *DEL*:           000007H   BYTE   UNIT     XDATA          ?XD?_OLED_P8X16STR?SEEKFREE_OLED
   *DEL*:           000026H   BYTE   UNIT     CODE           ?PR?_OLED_UINT16?SEEKFREE_OLED
   *DEL*:           000009H   BYTE   UNIT     XDATA          ?XD?_OLED_UINT16?SEEKFREE_OLED
   *DEL*:           000075H   BYTE   UNIT     CODE           ?PR?_OLED_INT16?SEEKFREE_OLED
   *DEL*:           00000BH   BYTE   UNIT     XDATA          ?XD?_OLED_INT16?SEEKFREE_OLED
   *DEL*:           0000EAH   BYTE   UNIT     CODE           ?PR?_OLED_PRINTF_INT32?SEEKFREE_OLED
   *DEL*:           00002CH   BYTE   UNIT     XDATA          ?XD?_OLED_PRINTF_INT32?SEEKFREE_OLED
   *DEL*:           000172H   BYTE   UNIT     CODE           ?PR?_OLED_PRINTF_FLOAT?SEEKFREE_OLED
   *DEL*:           00002FH   BYTE   UNIT     XDATA          ?XD?_OLED_PRINTF_FLOAT?SEEKFREE_OLED
   *DEL*:           0005ACH   BYTE   UNIT     CODE           ?PR?_OLED_DIS_BMP?SEEKFREE_OLED
   *DEL*:           000011H   BYTE   UNIT     XDATA          ?XD?_OLED_DIS_BMP?SEEKFREE_OLED
   *DEL*:           0000CFH   BYTE   UNIT     CODE           ?PR?_OLED_PRINT_CHINESE?SEEKFREE_OLED
   *DEL*:           00000DH   BYTE   UNIT     XDATA          ?XD?_OLED_PRINT_CHINESE?SEEKFREE_OLED
   *DEL*:           00000FH   BYTE   UNIT     CODE           ?PR?_OLED_WRDAT_SPI?SEEKFREE_OLED
   *DEL*:           000013H   BYTE   UNIT     CODE           ?PR?_OLED_WRCMD_SPI?SEEKFREE_OLED
   *DEL*:           000082H   BYTE   UNIT     CODE           ?PR?_OLED_HEXASCII_SPI?SEEKFREE_OLED
   *DEL*:           000007H   BYTE   UNIT     XDATA          ?XD?_OLED_HEXASCII_SPI?SEEKFREE_OLED
   *DEL*:           0000BAH   BYTE   UNIT     CODE           ?PR?OLED_INIT_SPI?SEEKFREE_OLED
   *DEL*:           00001CH   BYTE   UNIT     CODE           ?PR?_OLED_SET_POS_SPI?SEEKFREE_OLED
   *DEL*:           000001H   BYTE   UNIT     XDATA          ?XD?_OLED_SET_POS_SPI?SEEKFREE_OLED
   *DEL*:           000052H   BYTE   UNIT     CODE           ?PR?_OLED_FILL_SPI?SEEKFREE_OLED
   *DEL*:           000003H   BYTE   UNIT     XDATA          ?XD?_OLED_FILL_SPI?SEEKFREE_OLED
   *DEL*:           000032H   BYTE   UNIT     CODE           ?PR?_OLED_PUTPIXEL_SPI?SEEKFREE_OLED
   *DEL*:           000003H   BYTE   UNIT     XDATA          ?XD?_OLED_PUTPIXEL_SPI?SEEKFREE_OLED
   *DEL*:           00002AH   BYTE   UNIT     CODE           ?PR?_OLED_CLRPIXEL_SPI?SEEKFREE_OLED
   *DEL*:           000002H   BYTE   UNIT     XDATA          ?XD?_OLED_CLRPIXEL_SPI?SEEKFREE_OLED
   *DEL*:           00009EH   BYTE   UNIT     CODE           ?PR?_OLED_P6X8STR_SPI?SEEKFREE_OLED
   *DEL*:           000008H   BYTE   UNIT     XDATA          ?XD?_OLED_P6X8STR_SPI?SEEKFREE_OLED
   *DEL*:           0000E5H   BYTE   UNIT     CODE           ?PR?_OLED_P8X16STR_SPI?SEEKFREE_OLED
   *DEL*:           000008H   BYTE   UNIT     XDATA          ?XD?_OLED_P8X16STR_SPI?SEEKFREE_OLED
   *DEL*:           000026H   BYTE   UNIT     CODE           ?PR?_OLED_UINT16_SPI?SEEKFREE_OLED
   *DEL*:           000009H   BYTE   UNIT     XDATA          ?XD?_OLED_UINT16_SPI?SEEKFREE_OLED
   *DEL*:           000075H   BYTE   UNIT     CODE           ?PR?_OLED_INT16_SPI?SEEKFREE_OLED
   *DEL*:           00000BH   BYTE   UNIT     XDATA          ?XD?_OLED_INT16_SPI?SEEKFREE_OLED
   *DEL*:           0000EAH   BYTE   UNIT     CODE           ?PR?_OLED_PRINTF_INT32_SPI?SEEKFREE_OLED
   *DEL*:           00002CH   BYTE   UNIT     XDATA          ?XD?_OLED_PRINTF_INT32_SPI?SEEKFREE_OLED
   *DEL*:           000172H   BYTE   UNIT     CODE           ?PR?_OLED_PRINTF_FLOAT_SPI?SEEKFREE_OLED
   *DEL*:           00002FH   BYTE   UNIT     XDATA          ?XD?_OLED_PRINTF_FLOAT_SPI?SEEKFREE_OLED
   *DEL*:           0005AEH   BYTE   UNIT     CODE           ?PR?_OLED_DIS_BMP_SPI?SEEKFREE_OLED
   *DEL*:           000011H   BYTE   UNIT     XDATA          ?XD?_OLED_DIS_BMP_SPI?SEEKFREE_OLED
   *DEL*:           0000CFH   BYTE   UNIT     CODE           ?PR?_OLED_PRINT_CHINESE_SPI?SEEKFREE_OLED
   *DEL*:           00000DH   BYTE   UNIT     XDATA          ?XD?_OLED_PRINT_CHINESE_SPI?SEEKFREE_OLED
   *DEL*:           00000AH   BYTE   UNIT     CONST          ?CO?SEEKFREE_OLED
   *DEL*:           000010H   BYTE   UNIT     CODE           ?PR?CCD_INIT?SEEKFREE_TSL1401
   *DEL*:           000098H   BYTE   UNIT     CODE           ?PR?_CCD_SEND_DATA?SEEKFREE_TSL1401
   *DEL*:           000005H   BYTE   UNIT     XDATA          ?XD?_CCD_SEND_DATA?SEEKFREE_TSL1401
   *DEL*:           000091H   BYTE   UNIT     CODE           ?PR?_CRC_CHECK?SEEKFREE_VIRSCO
   *DEL*:           000007H   BYTE   UNIT     XDATA          ?XD?_CRC_CHECK?SEEKFREE_VIRSCO
   *DEL*:           0000A3H   BYTE   UNIT     CODE           ?PR?_DATA_CONVERSION?SEEKFREE_VIRSCO
   *DEL*:           00000BH   BYTE   UNIT     XDATA          ?XD?_DATA_CONVERSION?SEEKFREE_VIRSCO
   *DEL*:           00001FH   BYTE   UNIT     CODE           ?PR?SEEKFREE_WIRELESS_INIT?SEEKFREE_WIRELESS
   *DEL*:           0000ACH   BYTE   UNIT     CODE           ?PR?_SEEKFREE_WIRELESS_SEND_BUFF?SEEKFREE_WIRELESS
   *DEL*:           000007H   BYTE   UNIT     XDATA          ?XD?_SEEKFREE_WIRELESS_SEND_BUFF?SEEKFREE_WIRELESS
   *DEL*:           00001FH   BYTE   UNIT     CODE           ?PR?WIRELESS_CH573_INIT?SEEKFREE_WIRELESS_CH573
   *DEL*:           00008BH   BYTE   UNIT     CODE           ?PR?_WIRELESS_CH573_SEND_BUFF?SEEKFREE_WIRELESS_CH573
   *DEL*:           000005H   BYTE   UNIT     XDATA          ?XD?_WIRELESS_CH573_SEND_BUFF?SEEKFREE_WIRELESS_CH573
   *DEL*:           000015H   BYTE   UNIT     CODE           ?PR?_STRLEN?STRLEN

LX51 LINKER/LOCATER V4.66.97.0                                                        05/09/2022  19:31:19  PAGE 11




OVERLAY MAP OF MODULE:   .\BUILD\STC8H8K64U\MDK (SEEKFREE_PRINTF)


FUNCTION/MODULE                               XDATA_GROUP
--> CALLED FUNCTION/MODULE                    START  STOP
=========================================================
UART1_ISR/ISR                                 ----- -----

*** NEW ROOT ********************************

UART2_ISR/ISR                                 ----- -----

*** NEW ROOT ********************************

UART3_ISR/ISR                                 ----- -----

*** NEW ROOT ********************************

UART4_ISR/ISR                                 ----- -----
  +--> WIRELESS_UART_CALLBACK/SEEKFREE_WIRELESS
  +--> BLUETOOTH_CH9141_UART_CALLBACK/SEEKFREE_BLUETOOTH_CH9141
  +--> WIRELESS_CH573_CALLBACK/SEEKFREE_WIRELESS_CH573

WIRELESS_UART_CALLBACK/SEEKFREE_WIRELESS      02A2H 02A2H

BLUETOOTH_CH9141_UART_CALLBACK/SEEKFREE_+     ----- -----
... BLUETOOTH_CH9141
  +--> BLUETOOTH_CH9141_CHECK_RESPONSE/SEEKFREE_BLUETOOTH_CH9141

BLUETOOTH_CH9141_CHECK_RESPONSE/SEEKFREE+     ----- -----
... _BLUETOOTH_CH9141
  +--> _STRNCMP/STRNCMP

_STRNCMP/STRNCMP                              02A2H 02A9H

WIRELESS_CH573_CALLBACK/SEEKFREE_WIRELES+     02A2H 02A2H
... S_CH573

*** NEW ROOT ********************************

INT0_ISR/ISR                                  ----- -----

*** NEW ROOT ********************************

INT1_ISR/ISR                                  ----- -----

*** NEW ROOT ********************************

INT2_ISR/ISR                                  ----- -----

*** NEW ROOT ********************************

INT3_ISR/ISR                                  ----- -----

*** NEW ROOT ********************************

INT4_ISR/ISR                                  ----- -----

*** NEW ROOT ********************************

TM0_ISR/ISR                                   ----- -----

*** NEW ROOT ********************************
LX51 LINKER/LOCATER V4.66.97.0                                                        05/09/2022  19:31:19  PAGE 12



TM1_ISR/ISR                                   ----- -----
  +--> READ_HW/ISR

READ_HW/ISR                                   ----- -----

*** NEW ROOT ********************************

TM2_ISR/ISR                                   ----- -----

*** NEW ROOT ********************************

TM3_ISR/ISR                                   ----- -----

*** NEW ROOT ********************************

TM4_ISR/ISR                                   ----- -----
  +--> CCD_COLLECT/SEEKFREE_TSL1401

CCD_COLLECT/SEEKFREE_TSL1401                  02AAH 02AAH
  +--> _ADC_ONCE/ZF_ADC

_ADC_ONCE/ZF_ADC                              ----- -----

*** NEW ROOT ********************************

?C_C51STARTUP                                 ----- -----
  +--> MAIN/MAIN
  +--> ?C_INITSEG

MAIN/MAIN                                     02ABH 02B0H
  +--> DISABLEGLOBALIRQ/BOARD
  +--> BOARD_INIT/BOARD
  +--> IAP_INIT/ZF_EEPROM
  +--> LCD_INIT/SEEKFREE_18TFT
  +--> _PIT_TIMER_MS/ZF_TIM
  +--> _GPIO_MODE/ZF_GPIO
  +--> READDATA/MAIN
  +--> ENABLEGLOBALIRQ/BOARD
  +--> _PWM_INIT/ZF_PWM
  +--> KEYBOARD/MAIN
  +--> SHOWDATA/MAIN
  +--> _LCD_SHOWSTR/SEEKFREE_18TFT
  +--> SIGN_CROSSING/MAIN
  +--> M_SPEED_CHANGE/MAIN
  +--> TURN/MAIN
  +--> STRAIGHT_S_LINE/MAIN

DISABLEGLOBALIRQ/BOARD                        ----- -----

BOARD_INIT/BOARD                              ----- -----
  +--> GET_CLK/BOARD
  +--> DELAY_INIT/ZF_DELAY
  +--> _UART_INIT/ZF_UART

GET_CLK/BOARD                                 02B1H 02B4H

DELAY_INIT/ZF_DELAY                           ----- -----

_UART_INIT/ZF_UART                            02B1H 02B8H

IAP_INIT/ZF_EEPROM                            ----- -----
  +--> IAP_SET_TPS/ZF_EEPROM

IAP_SET_TPS/ZF_EEPROM                         ----- -----
LX51 LINKER/LOCATER V4.66.97.0                                                        05/09/2022  19:31:19  PAGE 13



LCD_INIT/SEEKFREE_18TFT                       ----- -----
  +--> _SPI_INIT/ZF_SPI
  +--> _DELAY_MS/ZF_DELAY
  +--> _LCD_WRITEINDEX/SEEKFREE_18TFT
  +--> _LCD_WRITEDATA/SEEKFREE_18TFT
  +--> _LCD_CLEAR/SEEKFREE_18TFT

_SPI_INIT/ZF_SPI                              02B1H 02B7H
  +--> _GPIO_MODE/ZF_GPIO

_GPIO_MODE/ZF_GPIO                            ----- -----

_DELAY_MS/ZF_DELAY                            ----- -----

_LCD_WRITEINDEX/SEEKFREE_18TFT                ----- -----
  +--> _SPI_MOSI/ZF_SPI

_SPI_MOSI/ZF_SPI                              ----- -----

_LCD_WRITEDATA/SEEKFREE_18TFT                 ----- -----
  +--> _SPI_MOSI/ZF_SPI

_LCD_CLEAR/SEEKFREE_18TFT                     02B1H 02B4H
  +--> _LCD_SET_REGION/SEEKFREE_18TFT
  +--> _LCD_WRITEDATA_16BIT/SEEKFREE_18TFT

_LCD_SET_REGION/SEEKFREE_18TFT                02C5H 02CCH
  +--> _LCD_WRITEINDEX/SEEKFREE_18TFT
  +--> _LCD_WRITEDATA/SEEKFREE_18TFT

_LCD_WRITEDATA_16BIT/SEEKFREE_18TFT           02C5H 02C6H
  +--> _SPI_MOSI/ZF_SPI

_PIT_TIMER_MS/ZF_TIM                          02B1H 02B1H

READDATA/MAIN                                 02B1H 02B2H
  +--> _IAP_READ_BYTES/ZF_EEPROM

_IAP_READ_BYTES/ZF_EEPROM                     02B3H 02B9H

ENABLEGLOBALIRQ/BOARD                         ----- -----

_PWM_INIT/ZF_PWM                              02B1H 02BBH
  +--> _PWM_SET_GPIO/ZF_PWM

_PWM_SET_GPIO/ZF_PWM                          ----- -----
  +--> _GPIO_MODE/ZF_GPIO

KEYBOARD/MAIN                                 ----- -----
  +--> _LCD_SHOWSTR/SEEKFREE_18TFT
  +--> SHOWDATA/MAIN
  +--> _DELAY_MS/ZF_DELAY
  +--> WRITEDATA/MAIN

_LCD_SHOWSTR/SEEKFREE_18TFT                   02B1H 02B9H
  +--> _LCD_SHOWCHAR/SEEKFREE_18TFT

_LCD_SHOWCHAR/SEEKFREE_18TFT                  02BDH 02C4H
  +--> _LCD_SET_REGION/SEEKFREE_18TFT
  +--> _LCD_WRITEDATA_16BIT/SEEKFREE_18TFT

SHOWDATA/MAIN                                 ----- -----
  +--> _LCD_SHOWSTR/SEEKFREE_18TFT
  +--> _LCD_SHOWINT16/SEEKFREE_18TFT
LX51 LINKER/LOCATER V4.66.97.0                                                        05/09/2022  19:31:19  PAGE 14



_LCD_SHOWINT16/SEEKFREE_18TFT                 02B1H 02BCH
  +--> _LCD_SHOWCHAR/SEEKFREE_18TFT

WRITEDATA/MAIN                                ----- -----
  +--> _IAP_ERASE_PAGE/ZF_EEPROM
  +--> _IAP_WRITE_BYTES/ZF_EEPROM

_IAP_ERASE_PAGE/ZF_EEPROM                     ----- -----

_IAP_WRITE_BYTES/ZF_EEPROM                    02B1H 02B7H

SIGN_CROSSING/MAIN                            ----- -----
  +--> _PWM_DUTY/ZF_PWM

_PWM_DUTY/ZF_PWM                              02B1H 02B5H

M_SPEED_CHANGE/MAIN                           ----- -----

TURN/MAIN                                     ----- -----
  +--> _PWM_DUTY/ZF_PWM
  +--> _DELAY_MS/ZF_DELAY

STRAIGHT_S_LINE/MAIN                          ----- -----
  +--> _PWM_DUTY/ZF_PWM

?C_INITSEG                                    ----- -----



PUBLIC SYMBOLS OF MODULE:  .\BUILD\STC8H8K64U\MDK (SEEKFREE_PRINTF)


      VALUE       CLASS    TYPE      PUBLIC SYMBOL NAME
      =================================================
*DEL*:00000000H   XDATA    BYTE      ?_bluetooth_ch9141_send_at_command_parameter?BYTE
*DEL*:00000000H   XDATA    BYTE      ?_data_conversion?BYTE
*DEL*:00000000H   XDATA    BYTE      ?_extern_iap_write_bytes?BYTE
      020002B3H   XDATA    BYTE      ?_iap_read_bytes?BYTE
      020002B1H   XDATA    BYTE      ?_iap_write_bytes?BYTE
*DEL*:00000000H   XDATA    BYTE      ?_icm_simspi_r_reg_bytes?BYTE
*DEL*:00000000H   XDATA    BYTE      ?_icm_spi_r_reg_bytes?BYTE
*DEL*:00000000H   XDATA    BYTE      ?_iic_init?BYTE
*DEL*:00000000H   XDATA    BYTE      ?_iic_read_reg_bytes?BYTE
*DEL*:00000000H   XDATA    BYTE      ?_ips114_set_region?BYTE
*DEL*:00000000H   XDATA    BYTE      ?_ips114_set_region_simspi?BYTE
*DEL*:00000000H   XDATA    BYTE      ?_ips114_showfloat?BYTE
*DEL*:00000000H   XDATA    BYTE      ?_ips114_showfloat_simspi?BYTE
*DEL*:00000000H   XDATA    BYTE      ?_ips114_showint32?BYTE
*DEL*:00000000H   XDATA    BYTE      ?_ips114_showint32_simspi?BYTE
      020002C5H   XDATA    BYTE      ?_lcd_set_region?BYTE
*DEL*:00000000H   XDATA    BYTE      ?_lcd_set_region_simspi?BYTE
*DEL*:00000000H   XDATA    BYTE      ?_lcd_showfloat?BYTE
*DEL*:00000000H   XDATA    BYTE      ?_lcd_showfloat_simspi?BYTE
*DEL*:00000000H   XDATA    BYTE      ?_lcd_showint32?BYTE
*DEL*:00000000H   XDATA    BYTE      ?_lcd_showint32_simspi?BYTE
*DEL*:00000000H   XDATA    BYTE      ?_number_conversion_ascii?BYTE
*DEL*:00000000H   XDATA    BYTE      ?_oled_dis_bmp?BYTE
*DEL*:00000000H   XDATA    BYTE      ?_oled_dis_bmp_spi?BYTE
*DEL*:00000000H   XDATA    BYTE      ?_oled_print_chinese?BYTE
*DEL*:00000000H   XDATA    BYTE      ?_oled_print_chinese_spi?BYTE
*DEL*:00000000H   XDATA    BYTE      ?_oled_printf_float?BYTE
*DEL*:00000000H   XDATA    BYTE      ?_oled_printf_float_spi?BYTE
*DEL*:00000000H   XDATA    BYTE      ?_oled_printf_int32?BYTE
*DEL*:00000000H   XDATA    BYTE      ?_oled_printf_int32_spi?BYTE
LX51 LINKER/LOCATER V4.66.97.0                                                        05/09/2022  19:31:19  PAGE 15


*DEL*:00000000H   XDATA    BYTE      ?_pwm_freq?BYTE
      020002B1H   XDATA    BYTE      ?_pwm_init?BYTE
*DEL*:00000000H   XDATA    BYTE      ?_simiic_read_regs?BYTE
*DEL*:00000000H   XDATA    BYTE      ?_spi_change_pin?BYTE
      020002B1H   XDATA    BYTE      ?_spi_init?BYTE
      020002A2H   XDATA    ---       ?_strncmp?BYTE
      020002B1H   XDATA    BYTE      ?_uart_init?BYTE
*DEL*:00000000H   XDATA    BYTE      ?_uart_putbuff?BYTE
*DEL*:00000000H   XDATA    BYTE      ?_zf_sprintf?BYTE
      0100040CH   CODE     ---       ?C?CASTF
      01000948H   CODE     ---       ?C?CCASE
      010005BEH   CODE     ---       ?C?CLDOPTR
      010005A5H   CODE     ---       ?C?CLDPTR
      00000000H   NUMBER   ---       ?C?CODESEG
      0100055DH   CODE     ---       ?C?COPY
      010005FDH   CODE     ---       ?C?CSTOPTR
      010005EBH   CODE     ---       ?C?CSTPTR
      010003D8H   CODE     ---       ?C?FCASTC
      010003D3H   CODE     ---       ?C?FCASTI
      010003CEH   CODE     ---       ?C?FCASTL
      010000ADH   CODE     ---       ?C?FPADD
      01000346H   CODE     ---       ?C?FPCMP
      01000344H   CODE     ---       ?C?FPCMP3
      010002A7H   CODE     ---       ?C?FPDIV
      01000443H   CODE     ---       ?C?FPGETOPN2
      0100019EH   CODE     ---       ?C?FPMUL
      01000478H   CODE     ---       ?C?FPNANRESULT
      010003BDH   CODE     ---       ?C?FPNEG
      01000482H   CODE     ---       ?C?FPOVERFLOW
      0100045AH   CODE     ---       ?C?FPRESULT
      0100046EH   CODE     ---       ?C?FPRESULT2
      010000A9H   CODE     ---       ?C?FPSUB
      0100047FH   CODE     ---       ?C?FPUNDERFLOW
      010006BCH   CODE     ---       ?C?IILDX
      010006D2H   CODE     ---       ?C?ILDIX
      010006E8H   CODE     ---       ?C?ILDOPTR
      0100061FH   CODE     ---       ?C?IMUL
      01000992H   CODE     ---       ?C?LLDCODE
      0100096EH   CODE     ---       ?C?LLDIDATA
      010008AEH   CODE     ---       ?C?LLDIXDATA
      010008A5H   CODE     ---       ?C?LLDIXDATA1
      010008A7H   CODE     ---       ?C?LLDIXDATA8
      01000986H   CODE     ---       ?C?LLDPDATA
      01000885H   CODE     ---       ?C?LLDPTR
      0100097AH   CODE     ---       ?C?LLDXDATA
      01000720H   CODE     ---       ?C?LMUL
      0100083DH   CODE     ---       ?C?LNEG
      010008E6H   CODE     ---       ?C?LSTKXDATA
      010008DAH   CODE     ---       ?C?LSTXDATA
      01000917H   CODE     ---       ?C?OFFX256
      010009BDH   CODE     ---       ?C?PLDCODE
      010009A2H   CODE     ---       ?C?PLDIDATA
      010009B4H   CODE     ---       ?C?PLDPDATA
      01000928H   CODE     ---       ?C?PLDPTR
      010009ABH   CODE     ---       ?C?PLDXDATA
      01000583H   CODE     ---       ?C?SCDIV
      01000686H   CODE     ---       ?C?SIDIV
      0100084BH   CODE     ---       ?C?SLCMP
      01002D38H   CODE     ---       ?C?SLDIV
      01000631H   CODE     ---       ?C?UIDIV
      01000861H   CODE     ---       ?C?ULCMP
      010007ABH   CODE     ---       ?C?ULDIV
      01000872H   CODE     ---       ?C?ULSHR
      00000000H   NUMBER   ---       ?C?XDATASEG
      010027FDH   CODE     ---       ?C_START
LX51 LINKER/LOCATER V4.66.97.0                                                        05/09/2022  19:31:19  PAGE 16


      01000000H   CODE     ---       ?C_STARTUP
*DEL*:00000000H   CODE     ---       _adc_init
      01002E2FH   CODE     ---       _adc_once
*DEL*:00000000H   CODE     ---       _bluetooth_ch9141_connect
*DEL*:00000000H   CODE     ---       _bluetooth_ch9141_default_connect
*DEL*:00000000H   CODE     ---       _bluetooth_ch9141_get_status
*DEL*:00000000H   CODE     ---       _bluetooth_ch9141_init
*DEL*:00000000H   CODE     ---       _bluetooth_ch9141_send_at_command
*DEL*:00000000H   CODE     ---       _bluetooth_ch9141_send_at_command_parameter
*DEL*:00000000H   CODE     ---       _bluetooth_ch9141_send_buff
*DEL*:00000000H   CODE     ---       _bluetooth_ch9141_set_mode
*DEL*:00000000H   CODE     ---       _bluetooth_ch9141_set_name
*DEL*:00000000H   CODE     ---       _bluetooth_ch9141_set_password
*DEL*:00000000H   CODE     ---       _bluetooth_ch9141_set_tx_power
*DEL*:00000000H   CODE     ---       _ccd_send_data
*DEL*:00000000H   CODE     ---       _CRC_CHECK
*DEL*:00000000H   CODE     ---       _ctimer_count_clean
*DEL*:00000000H   CODE     ---       _ctimer_count_init
*DEL*:00000000H   CODE     ---       _ctimer_count_read
*DEL*:00000000H   CODE     ---       _data_conversion
      01000026H   CODE     ---       _delay_ms
*DEL*:00000000H   CODE     ---       _delay_us
*DEL*:0000000AH   CODE     ---       _encoder_delay_us
*DEL*:00000000H   CODE     ---       _encoder_simspi_r_reg_byte
*DEL*:00000000H   CODE     ---       _encoder_simspi_w_reg_byte
*DEL*:00000000H   CODE     ---       _encoder_spi_r_reg_byte
*DEL*:00000000H   CODE     ---       _encoder_spi_w_reg_byte
*DEL*:00000000H   CODE     ---       _exit_init
*DEL*:00000000H   CODE     ---       _extern_iap_write_bytes
      01000DD1H   CODE     ---       _gpio_mode
*DEL*:00000000H   CODE     ---       _gpio_pull_set
      01002F39H   CODE     ---       _iap_erase_page
      01002C61H   CODE     ---       _iap_read_bytes
      01002CAAH   CODE     ---       _iap_write_bytes
*DEL*:00000000H   CODE     ---       _icm_simspi_r_reg_byte
*DEL*:00000000H   CODE     ---       _icm_simspi_r_reg_bytes
*DEL*:00000000H   CODE     ---       _icm_simspi_w_reg_byte
*DEL*:00000006H   CODE     ---       _icm_simspi_wr_byte
*DEL*:00000000H   CODE     ---       _icm_spi_r_reg_byte
*DEL*:00000000H   CODE     ---       _icm_spi_r_reg_bytes
*DEL*:00000000H   CODE     ---       _icm_spi_w_reg_byte
*DEL*:0000000EH   CODE     ---       _icm_spi_wr_byte
*DEL*:00000000H   CODE     ---       _iic_change_pin
*DEL*:00000000H   CODE     ---       _iic_delay_us
*DEL*:00000000H   CODE     ---       _iic_init
*DEL*:00000000H   CODE     ---       _iic_read_reg
*DEL*:00000000H   CODE     ---       _iic_read_reg_bytes
*DEL*:00000000H   CODE     ---       _iic_write_reg
*DEL*:00000000H   CODE     ---       _ips114_clear
*DEL*:00000000H   CODE     ---       _ips114_clear_simspi
*DEL*:00000000H   CODE     ---       _ips114_drawpoint
*DEL*:00000000H   CODE     ---       _ips114_drawpoint_simspi
*DEL*:00000000H   CODE     ---       _ips114_set_region
*DEL*:00000000H   CODE     ---       _ips114_set_region_simspi
*DEL*:00000018H   CODE     ---       _ips114_showchar
*DEL*:00000018H   CODE     ---       _ips114_showchar_simspi
*DEL*:00000000H   CODE     ---       _ips114_showfloat
*DEL*:00000000H   CODE     ---       _ips114_showfloat_simspi
*DEL*:00000000H   CODE     ---       _ips114_showint16
*DEL*:00000000H   CODE     ---       _ips114_showint16_simspi
*DEL*:00000000H   CODE     ---       _ips114_showint32
*DEL*:00000000H   CODE     ---       _ips114_showint32_simspi
*DEL*:00000000H   CODE     ---       _ips114_showint8
*DEL*:00000000H   CODE     ---       _ips114_showint8_simspi
*DEL*:00000000H   CODE     ---       _ips114_showstr
LX51 LINKER/LOCATER V4.66.97.0                                                        05/09/2022  19:31:19  PAGE 17


*DEL*:00000000H   CODE     ---       _ips114_showstr_simspi
*DEL*:00000000H   CODE     ---       _ips114_showuint16
*DEL*:00000000H   CODE     ---       _ips114_showuint16_simspi
*DEL*:00000000H   CODE     ---       _ips114_showuint8
*DEL*:00000000H   CODE     ---       _ips114_showuint8_simspi
*DEL*:00000000H   CODE     ---       _ips114_writeData
*DEL*:00000007H   CODE     ---       _ips114_writedata_16bit
*DEL*:0000000AH   CODE     ---       _ips114_writeData_simspi
*DEL*:00000007H   CODE     ---       _ips114_writeDatai_16bit_simspi
*DEL*:00000000H   CODE     ---       _ips114_writeIndex
*DEL*:00000000H   CODE     ---       _ips114_writeIndex_simspi
      01002B6AH   CODE     ---       _lcd_clear
*DEL*:00000000H   CODE     ---       _lcd_clear_simspi
*DEL*:00000000H   CODE     ---       _lcd_drawpoint
*DEL*:00000000H   CODE     ---       _lcd_drawpoint_simspi
      01002AADH   CODE     ---       _lcd_set_region
*DEL*:00000000H   CODE     ---       _lcd_set_region_simspi
      0100239BH   CODE     ---       _lcd_showchar
*DEL*:00000018H   CODE     ---       _lcd_showchar_simspi
*DEL*:00000000H   CODE     ---       _lcd_showfloat
*DEL*:00000000H   CODE     ---       _lcd_showfloat_simspi
      0100202FH   CODE     ---       _lcd_showint16
*DEL*:00000000H   CODE     ---       _lcd_showint16_simspi
*DEL*:00000000H   CODE     ---       _lcd_showint32
*DEL*:00000000H   CODE     ---       _lcd_showint32_simspi
*DEL*:00000000H   CODE     ---       _lcd_showint8
*DEL*:00000000H   CODE     ---       _lcd_showint8_simspi
      01002953H   CODE     ---       _lcd_showstr
*DEL*:00000000H   CODE     ---       _lcd_showstr_simspi
*DEL*:00000000H   CODE     ---       _lcd_showuint16
*DEL*:00000000H   CODE     ---       _lcd_showuint16_simspi
*DEL*:00000000H   CODE     ---       _lcd_showuint8
*DEL*:00000000H   CODE     ---       _lcd_showuint8_simspi
      01002F53H   CODE     ---       _lcd_writeData
      01002E60H   CODE     ---       _lcd_writedata_16bit
*DEL*:00000000H   CODE     ---       _lcd_writeData_16bit_simspi
*DEL*:0000000FH   CODE     ---       _lcd_writeData_simspi
      01002F49H   CODE     ---       _lcd_writeIndex
*DEL*:00000000H   CODE     ---       _lcd_writeIndex_simspi
*DEL*:00000036H   CODE     ---       _number_conversion_ascii
*DEL*:00000000H   CODE     ---       _NVIC_SetPriority
*DEL*:00000000H   CODE     ---       _oled_clrpixel
*DEL*:00000000H   CODE     ---       _oled_clrpixel_spi
*DEL*:00000000H   CODE     ---       _oled_dis_bmp
*DEL*:00000000H   CODE     ---       _oled_dis_bmp_spi
*DEL*:00000000H   CODE     ---       _oled_fill
*DEL*:00000000H   CODE     ---       _oled_fill_spi
*DEL*:00000000H   CODE     ---       _oled_hexascii
*DEL*:00000000H   CODE     ---       _oled_hexascii_spi
*DEL*:00000000H   CODE     ---       _oled_int16
*DEL*:00000000H   CODE     ---       _oled_int16_spi
*DEL*:00000000H   CODE     ---       _oled_p6x8str
*DEL*:00000000H   CODE     ---       _oled_p6x8str_spi
*DEL*:00000000H   CODE     ---       _oled_p8x16str
*DEL*:00000000H   CODE     ---       _oled_p8x16str_spi
*DEL*:00000000H   CODE     ---       _oled_print_chinese
*DEL*:00000000H   CODE     ---       _oled_print_chinese_spi
*DEL*:00000000H   CODE     ---       _oled_printf_float
*DEL*:00000000H   CODE     ---       _oled_printf_float_spi
*DEL*:00000000H   CODE     ---       _oled_printf_int32
*DEL*:00000000H   CODE     ---       _oled_printf_int32_spi
*DEL*:00000000H   CODE     ---       _oled_putpixel
*DEL*:00000000H   CODE     ---       _oled_putpixel_spi
*DEL*:00000000H   CODE     ---       _oled_set_pos
*DEL*:00000000H   CODE     ---       _oled_set_pos_spi
LX51 LINKER/LOCATER V4.66.97.0                                                        05/09/2022  19:31:19  PAGE 18


*DEL*:00000000H   CODE     ---       _oled_uint16
*DEL*:00000000H   CODE     ---       _oled_uint16_spi
*DEL*:00000008H   CODE     ---       _oled_wrcmd
*DEL*:00000009H   CODE     ---       _oled_wrcmd_spi
*DEL*:00000005H   CODE     ---       _oled_wrdat
*DEL*:00000005H   CODE     ---       _oled_wrdat_spi
      01002729H   CODE     ---       _pit_timer_ms
*DEL*:00000011H   CODE     ---       _printf_reverse_order
*DEL*:00000000H   CODE     ---       _putchar
      0100216EH   CODE     ---       _pwm_duty
*DEL*:00000000H   CODE     ---       _pwm_freq
      01001422H   CODE     ---       _pwm_init
      01001E9EH   CODE     ---       _pwm_set_gpio
*DEL*:00000000H   CODE     ---       _read_ch
*DEL*:00000000H   CODE     ---       _seekfree_wireless_send_buff
*DEL*:00000004H   CODE     ---       _send_ch
*DEL*:00000004H   CODE     ---       _send_data
*DEL*:00000000H   CODE     ---       _set_zero_position_simspi
*DEL*:00000000H   CODE     ---       _set_zero_position_spi
*DEL*:00000000H   CODE     ---       _showimage
*DEL*:00000000H   CODE     ---       _simiic_read_reg
*DEL*:00000000H   CODE     ---       _simiic_read_regs
*DEL*:00000000H   CODE     ---       _simiic_sendack
*DEL*:00000000H   CODE     ---       _simiic_write_reg
*DEL*:00000000H   CODE     ---       _simspi_r_reg_byte
*DEL*:00000000H   CODE     ---       _simspi_w_reg_byte
*DEL*:00000004H   CODE     ---       _simspi_wr_byte
*DEL*:00000000H   CODE     ---       _spi_change_mode
*DEL*:00000000H   CODE     ---       _spi_change_pin
      01002472H   CODE     ---       _spi_init
      01000046H   CODE     ---       _spi_mosi
*DEL*:00000000H   CODE     ---       _spi_r_reg_byte
*DEL*:00000000H   CODE     ---       _spi_w_reg_byte
*DEL*:0000000EH   CODE     ---       _spi_wr_byte
*DEL*:00000000H   CODE     ---       _STRLEN
      010028CCH   CODE     ---       _strncmp
      01001AFEH   CODE     ---       _uart_init
*DEL*:00000000H   CODE     ---       _uart_putbuff
*DEL*:0000000FH   CODE     ---       _uart_putchar
*DEL*:00000000H   CODE     ---       _uart_putstr
*DEL*:00000000H   CODE     ---       _wireless_ch573_send_buff
*DEL*:00000000H   CODE     ---       _zf_sprintf
      0200028FH   XDATA    BYTE      at_mode
      02000290H   XDATA    BYTE      at_mode_cmd_flag
      02000271H   XDATA    ---       at_mode_data
      0200026EH   XDATA    BYTE      at_mode_num
      01002D7CH   CODE     ---       bluetooth_ch9141_check_response
*DEL*:00000000H   CODE     ---       bluetooth_ch9141_enter_at_mode
*DEL*:00000000H   CODE     ---       bluetooth_ch9141_exit_at_mode
*DEL*:00000000H   CODE     ---       bluetooth_ch9141_get_mac_address
*DEL*:00000000H   CODE     ---       bluetooth_ch9141_get_rssi
*DEL*:00000000H   CODE     ---       bluetooth_ch9141_reset
      0200026DH   XDATA    BYTE      bluetooth_ch9141_rx_buffer
      01002DFAH   CODE     ---       bluetooth_ch9141_uart_callback
      01002B0EH   CODE     ---       board_init
      020001C9H   XDATA    ---       busy
      01002C14H   CODE     ---       ccd_collect
      02000001H   XDATA    ---       ccd_data
*DEL*:00000000H   CODE     ---       ccd_init
      020001EAH   XDATA    FLOAT     ct
      010029C9H   CODE     ---       delay_init
      020001D8H   XDATA    INT       delaytime
      01000056H   CODE     ---       DisableGlobalIRQ
      0100005EH   CODE     ---       EnableGlobalIRQ
*DEL*:00000000H   CODE     ---       encoder_angle_simspi
LX51 LINKER/LOCATER V4.66.97.0                                                        05/09/2022  19:31:19  PAGE 19


*DEL*:00000000H   CODE     ---       encoder_angle_spi
*DEL*:00000000H   CODE     ---       encoder_init_simspi
*DEL*:00000000H   CODE     ---       encoder_init_spi
*DEL*:00000000H   CODE     ---       encoder_self4_check
*DEL*:00000000H   CODE     ---       encoder_self5_check
      020001D4H   XDATA    INT       error
      0100115EH   CODE     ---       get_clk
*DEL*:00000000H   CODE     ---       get_icm20602_accdata_simiic
*DEL*:00000000H   CODE     ---       get_icm20602_accdata_simspi
*DEL*:00000000H   CODE     ---       get_icm20602_accdata_spi
*DEL*:00000000H   CODE     ---       get_icm20602_gyro_simiic
*DEL*:00000000H   CODE     ---       get_icm20602_gyro_simspi
*DEL*:00000000H   CODE     ---       get_icm20602_gyro_spi
      02000250H   XDATA    ---       hw
      02000262H   XDATA    INT       i
*DEL*:00000000H   CODE     ---       iap_get_cmd_state
*DEL*:00000000H   CODE     ---       iap_idle
      01002F6BH   CODE     ---       iap_init
      01002EC7H   CODE     ---       iap_set_tps
*DEL*:00000000H   CODE     ---       icm20602_init_simiic
*DEL*:00000000H   CODE     ---       icm20602_init_simspi
*DEL*:00000000H   CODE     ---       icm20602_init_spi
*DEL*:00000000H   CODE     ---       icm20602_self1_check
*DEL*:00000000H   CODE     ---       icm20602_self3_check
*DEL*:00000000H   CODE     ---       icm20602_self4_check
      020002CDH   XDATA    INT       icm_acc_x
      020002CFH   XDATA    INT       icm_acc_y
      020002D1H   XDATA    INT       icm_acc_z
      020002D3H   XDATA    INT       icm_gyro_x
      020002D5H   XDATA    INT       icm_gyro_y
      020002D7H   XDATA    INT       icm_gyro_z
      020002EFH   XDATA    BYTE      IIC_ad_main
      020002F1H   XDATA    BYTE      IIC_ad_sub
      020002F2H   XDATA    ---       IIC_buf
      020002F0H   XDATA    BYTE      IIC_num
      01000086H   CODE     ---       INT0_Isr
      0100000AH   CODE     ---       INT1_Isr
      01000006H   CODE     ---       INT2_Isr
      0100000EH   CODE     ---       INT3_Isr
      01000016H   CODE     ---       INT4_Isr
*DEL*:00000000H   CODE     ---       ips114_init
*DEL*:00000000H   CODE     ---       ips114_init_simspi
      02000266H   XDATA    INT       j
      02000268H   XDATA    BYTE      k
      0100268AH   CODE     ---       keyboard
      020001E8H   XDATA    INT       L_motor_speed
      010018F3H   CODE     ---       lcd_init
*DEL*:00000000H   CODE     ---       lcd_init_simspi
      010009C9H   CODE     ---       m_speed_change
      02000291H   XDATA    ---       mac_address
      01001CD1H   CODE     ---       main
      020001D2H   XDATA    INT       motor_speed
*DEL*:00000000H   CODE     ---       mpu6050_get_accdata
*DEL*:00000000H   CODE     ---       mpu6050_get_gyro
*DEL*:00000000H   CODE     ---       mpu6050_init
*DEL*:00000000H   CODE     ---       mpu6050_self1_check
      020002D9H   XDATA    INT       mpu_acc_x
      020002DBH   XDATA    INT       mpu_acc_y
      020002DDH   XDATA    INT       mpu_acc_z
      020002DFH   XDATA    INT       mpu_gyro_x
      020002E1H   XDATA    INT       mpu_gyro_y
      020002E3H   XDATA    INT       mpu_gyro_z
      020001DAH   XDATA    ---       num
      01003561H   CONST    ---       oled_6x8
      01003789H   CONST    ---       oled_8x16
LX51 LINKER/LOCATER V4.66.97.0                                                        05/09/2022  19:31:19  PAGE 20


*DEL*:00000000H   CODE     ---       oled_init
*DEL*:00000000H   CODE     ---       oled_init_spi
      0200024EH   XDATA    INT       R_motor_speed
      01002CF3H   CODE     ---       read_hw
      01002F1EH   CODE     ---       readdata
*DEL*:00000000H   CODE     ---       recv_ack
*DEL*:00000000H   CODE     ---       recv_data
*DEL*:00000000H   CODE     ---       seekfree_wireless_init
*DEL*:0000000FH   CODE     ---       send_ack
*DEL*:00000000H   CODE     ---       send_nak
      01002545H   CODE     ---       showdata
      020001D6H   XDATA    INT       sign
      010016C4H   CODE     ---       sign_crossing
*DEL*:00000007H   CODE     ---       simiic_delay
*DEL*:00000000H   CODE     ---       simiic_init
*DEL*:00000000H   CODE     ---       simiic_start
*DEL*:00000000H   CODE     ---       simiic_stop
*DEL*:0000000EH   CODE     ---       start
      02000260H   XDATA    INT       start2
      02000264H   XDATA    INT       startcar
*DEL*:00000000H   CODE     ---       stop
      020001EEH   XDATA    ---       str
      01002281H   CODE     ---       straight_S_line
      020002F5H   XDATA    DWORD     sys_clk
      01002F71H   CONST    ---       tft_ascii
      0200025EH   XDATA    INT       time1
      01000012H   CODE     ---       TM0_Isr
      01000066H   CODE     ---       TM1_Isr
      0100001EH   CODE     ---       TM2_Isr
      01002EE5H   CODE     ---       TM3_Isr
      01002DBCH   CODE     ---       TM4_Isr
      020001CEH   XDATA    INT       tmp1
      020001D0H   XDATA    INT       tmp2
      02000000H   XDATA    BYTE      tsl1401_finish_flag
      01002842H   CODE     ---       turn
      01002BC5H   CODE     ---       UART1_Isr
      02000101H   XDATA    ---       uart1_rx_buff
      02000165H   XDATA    ---       uart1_tx_buff
      01002E83H   CODE     ---       UART2_Isr
      01002EA5H   CODE     ---       UART3_Isr
      01002A3BH   CODE     ---       UART4_Isr
      0200026FH   XDATA    BYTE      uart_data
      02000270H   XDATA    BYTE      uart_flag
      020002E5H   XDATA    ---       virtual_scope_data
*DEL*:00000000H   CODE     ---       wait
      01002F64H   CODE     ---       wireless_ch573_callback
*DEL*:00000000H   CODE     ---       wireless_ch573_init
      020002FDH   XDATA    BYTE      wireless_type
      01002F5DH   CODE     ---       wireless_uart_callback
      01002F03H   CODE     ---       writedata
      02000269H   XDATA    FLOAT     wt
      020002F9H   XDATA    WORD      zf_delay_ms
      020002FBH   XDATA    WORD      zf_delay_us



SYMBOL TABLE OF MODULE:  .\BUILD\STC8H8K64U\MDK (SEEKFREE_PRINTF)

      VALUE       REP       CLASS    TYPE      SYMBOL NAME
      ====================================================
      ---         MODULE    ---      ---       SEEKFREE_PRINTF

      ---         MODULE    ---      ---       BOARD
      020002F5H   PUBLIC    XDATA    DWORD     sys_clk
      0100005EH   PUBLIC    CODE     ---       EnableGlobalIRQ
LX51 LINKER/LOCATER V4.66.97.0                                                        05/09/2022  19:31:19  PAGE 21


      01000056H   PUBLIC    CODE     ---       DisableGlobalIRQ
      01002B0EH   PUBLIC    CODE     ---       board_init
      0100115EH   PUBLIC    CODE     ---       get_clk

      0100115EH   BLOCK     CODE     ---       LVL=0
      0100115EH   BLOCK     CODE     NEAR LAB  LVL=1
      020002B1H   SYMBOL    XDATA    VOID      temp_count
      ---         BLOCKEND  ---      ---       LVL=1
      ---         BLOCKEND  ---      ---       LVL=0

      01002B0EH   BLOCK     CODE     ---       LVL=0
      ---         BLOCKEND  ---      ---       LVL=0

      01000056H   BLOCK     CODE     ---       LVL=0
      ---         BLOCKEND  ---      ---       LVL=0

      0100005EH   BLOCK     CODE     ---       LVL=0
      ---         BLOCKEND  ---      ---       LVL=0

      ---         MODULE    ---      ---       COMMON
      020002FDH   PUBLIC    XDATA    BYTE      wireless_type

      ---         MODULE    ---      ---       ZF_ADC
      01002E2FH   PUBLIC    CODE     ---       _adc_once

      01002E2FH   BLOCK     CODE     ---       LVL=0
      01002E31H   BLOCK     CODE     NEAR LAB  LVL=1
      00000006H   SYMBOL    DATA     VOID      adc_value
      ---         BLOCKEND  ---      ---       LVL=1
      ---         BLOCKEND  ---      ---       LVL=0

      ---         MODULE    ---      ---       ZF_DELAY
      020002FBH   PUBLIC    XDATA    WORD      zf_delay_us
      020002F9H   PUBLIC    XDATA    WORD      zf_delay_ms
      01000026H   PUBLIC    CODE     ---       _delay_ms
      010029C9H   PUBLIC    CODE     ---       delay_init

      010029C9H   BLOCK     CODE     ---       LVL=0
      ---         BLOCKEND  ---      ---       LVL=0

      01000026H   BLOCK     CODE     ---       LVL=0
      01000026H   BLOCK     CODE     NEAR LAB  LVL=1
      00000004H   SYMBOL    DATA     VOID      i
      ---         BLOCKEND  ---      ---       LVL=1
      ---         BLOCKEND  ---      ---       LVL=0

      ---         MODULE    ---      ---       ZF_EEPROM
      01002F39H   PUBLIC    CODE     ---       _iap_erase_page
      020002B1H   PUBLIC    XDATA    BYTE      ?_iap_write_bytes?BYTE
      01002CAAH   PUBLIC    CODE     ---       _iap_write_bytes
      020002B3H   PUBLIC    XDATA    BYTE      ?_iap_read_bytes?BYTE
      01002C61H   PUBLIC    CODE     ---       _iap_read_bytes
      01002EC7H   PUBLIC    CODE     ---       iap_set_tps
      01002F6BH   PUBLIC    CODE     ---       iap_init

      01002F6BH   BLOCK     CODE     ---       LVL=0
      ---         BLOCKEND  ---      ---       LVL=0

      01002EC7H   BLOCK     CODE     ---       LVL=0
      01002EC7H   BLOCK     CODE     NEAR LAB  LVL=1
      00000007H   SYMBOL    DATA     VOID      write_time
      ---         BLOCKEND  ---      ---       LVL=1
      ---         BLOCKEND  ---      ---       LVL=0

      01002C61H   BLOCK     CODE     ---       LVL=0
LX51 LINKER/LOCATER V4.66.97.0                                                        05/09/2022  19:31:19  PAGE 22


      ---         BLOCKEND  ---      ---       LVL=0

      01002CAAH   BLOCK     CODE     ---       LVL=0
      ---         BLOCKEND  ---      ---       LVL=0

      01002F39H   BLOCK     CODE     ---       LVL=0
      ---         BLOCKEND  ---      ---       LVL=0

      ---         MODULE    ---      ---       ZF_EXTI

      ---         MODULE    ---      ---       ZF_GPIO
      01000DD1H   PUBLIC    CODE     ---       _gpio_mode

      01000DD1H   BLOCK     CODE     ---       LVL=0
      ---         BLOCKEND  ---      ---       LVL=0

      ---         MODULE    ---      ---       ZF_IIC
      00000005H   SYMBOL    DATA     VOID      i
      00000004H   SYMBOL    DATA     VOID      ret
      00000007H   SYMBOL    DATA     VOID      ret
      00000007H   SYMBOL    DATA     VOID      ret
      00000007H   SYMBOL    DATA     VOID      ret
      00000007H   SYMBOL    DATA     VOID      ret
      00000007H   SYMBOL    DATA     VOID      ret

      ---         MODULE    ---      ---       ZF_MDU16

      ---         MODULE    ---      ---       ZF_NVIC

      ---         MODULE    ---      ---       ZF_PWM
      0100216EH   PUBLIC    CODE     ---       _pwm_duty
      020002B1H   PUBLIC    XDATA    BYTE      ?_pwm_init?BYTE
      01001422H   PUBLIC    CODE     ---       _pwm_init
      01001E9EH   PUBLIC    CODE     ---       _pwm_set_gpio

      01001E9EH   BLOCK     CODE     ---       LVL=0
      ---         BLOCKEND  ---      ---       LVL=0

      01001422H   BLOCK     CODE     ---       LVL=0
      01001427H   BLOCK     CODE     NEAR LAB  LVL=1
      00000004H   SYMBOL    DATA     VOID      match_temp
      020002B8H   SYMBOL    XDATA    VOID      period_temp
      020002BAH   SYMBOL    XDATA    VOID      freq_div
      ---         BLOCKEND  ---      ---       LVL=1
      ---         BLOCKEND  ---      ---       LVL=0

      0100216EH   BLOCK     CODE     ---       LVL=0
      01002173H   BLOCK     CODE     NEAR LAB  LVL=1
      020002B2H   SYMBOL    XDATA    VOID      match_temp
      020002B4H   SYMBOL    XDATA    VOID      duty
      ---         BLOCKEND  ---      ---       LVL=1
      ---         BLOCKEND  ---      ---       LVL=0

      ---         MODULE    ---      ---       ZF_SPI
      01000046H   PUBLIC    CODE     ---       _spi_mosi
      020002B1H   PUBLIC    XDATA    BYTE      ?_spi_init?BYTE
      01002472H   PUBLIC    CODE     ---       _spi_init

      01002472H   BLOCK     CODE     ---       LVL=0
      ---         BLOCKEND  ---      ---       LVL=0

      01000046H   BLOCK     CODE     ---       LVL=0
      ---         BLOCKEND  ---      ---       LVL=0

      ---         MODULE    ---      ---       ZF_TIM
LX51 LINKER/LOCATER V4.66.97.0                                                        05/09/2022  19:31:19  PAGE 23


      01002729H   PUBLIC    CODE     ---       _pit_timer_ms
      00000004H   SYMBOL    DATA     VOID      dat

      01002729H   BLOCK     CODE     ---       LVL=0
      0100272EH   BLOCK     CODE     NEAR LAB  LVL=1
      00000006H   SYMBOL    DATA     VOID      temp
      ---         BLOCKEND  ---      ---       LVL=1
      ---         BLOCKEND  ---      ---       LVL=0

      ---         MODULE    ---      ---       ZF_UART
      020001C9H   PUBLIC    XDATA    ---       busy
      02000165H   PUBLIC    XDATA    ---       uart1_tx_buff
      02000101H   PUBLIC    XDATA    ---       uart1_rx_buff
      020002B1H   PUBLIC    XDATA    BYTE      ?_uart_init?BYTE
      01001AFEH   PUBLIC    CODE     ---       _uart_init

      01001AFEH   BLOCK     CODE     ---       LVL=0
      01001B09H   BLOCK     CODE     NEAR LAB  LVL=1
      00000004H   SYMBOL    DATA     VOID      brt
      ---         BLOCKEND  ---      ---       LVL=1
      ---         BLOCKEND  ---      ---       LVL=0

      ---         MODULE    ---      ---       SEEKFREE_18TFT
      0100202FH   PUBLIC    CODE     ---       _lcd_showint16
      01002953H   PUBLIC    CODE     ---       _lcd_showstr
      0100239BH   PUBLIC    CODE     ---       _lcd_showchar
      010018F3H   PUBLIC    CODE     ---       lcd_init
      01002B6AH   PUBLIC    CODE     ---       _lcd_clear
      020002C5H   PUBLIC    XDATA    BYTE      ?_lcd_set_region?BYTE
      01002AADH   PUBLIC    CODE     ---       _lcd_set_region
      01002E60H   PUBLIC    CODE     ---       _lcd_writedata_16bit
      01002F53H   PUBLIC    CODE     ---       _lcd_writeData
      01002F49H   PUBLIC    CODE     ---       _lcd_writeIndex
      00000006H   SYMBOL    DATA     VOID      i
      00000006H   SYMBOL    DATA     VOID      i
      00000005H   SYMBOL    DATA     VOID      i
      00000003H   SYMBOL    DATA     VOID      i
      00000002H   SYMBOL    DATA     VOID      j
      00000002H   SYMBOL    DATA     VOID      j
      00000003H   SYMBOL    DATA     VOID      temp
      00000005H   SYMBOL    DATA     VOID      point

      01002F49H   BLOCK     CODE     ---       LVL=0
      ---         BLOCKEND  ---      ---       LVL=0

      01002F53H   BLOCK     CODE     ---       LVL=0
      ---         BLOCKEND  ---      ---       LVL=0

      01002E60H   BLOCK     CODE     ---       LVL=0
      01002E64H   BLOCK     CODE     NEAR LAB  LVL=1
      020002C5H   SYMBOL    XDATA    VOID      dat1
      ---         BLOCKEND  ---      ---       LVL=1
      ---         BLOCKEND  ---      ---       LVL=0

      01002AADH   BLOCK     CODE     ---       LVL=0
      ---         BLOCKEND  ---      ---       LVL=0

      01002B6AH   BLOCK     CODE     ---       LVL=0
      01002B72H   BLOCK     CODE     NEAR LAB  LVL=1
      020002B3H   SYMBOL    XDATA    VOID      i
      020002B4H   SYMBOL    XDATA    VOID      j
      ---         BLOCKEND  ---      ---       LVL=1
      ---         BLOCKEND  ---      ---       LVL=0

      010018F3H   BLOCK     CODE     ---       LVL=0
LX51 LINKER/LOCATER V4.66.97.0                                                        05/09/2022  19:31:19  PAGE 24


      ---         BLOCKEND  ---      ---       LVL=0

      01002383H   BLOCK     CODE     ---       LVL=0
      ---         BLOCKEND  ---      ---       LVL=0

      0100239BH   BLOCK     CODE     ---       LVL=0
      010023ACH   BLOCK     CODE     NEAR LAB  LVL=1
      020002C2H   SYMBOL    XDATA    VOID      i
      020002C3H   SYMBOL    XDATA    VOID      j
      020002C4H   SYMBOL    XDATA    VOID      temp
      ---         BLOCKEND  ---      ---       LVL=1
      ---         BLOCKEND  ---      ---       LVL=0

      01002953H   BLOCK     CODE     ---       LVL=0
      0100296AH   BLOCK     CODE     NEAR LAB  LVL=1
      020002B8H   SYMBOL    XDATA    VOID      j
      ---         BLOCKEND  ---      ---       LVL=1
      ---         BLOCKEND  ---      ---       LVL=0

      0100202FH   BLOCK     CODE     ---       LVL=0
      01002043H   BLOCK     CODE     NEAR LAB  LVL=1
      020002B7H   SYMBOL    XDATA    VOID      a
      020002BCH   SYMBOL    XDATA    VOID      i
      ---         BLOCKEND  ---      ---       LVL=1
      ---         BLOCKEND  ---      ---       LVL=0
      00000005H   SYMBOL    DATA     VOID      point

      ---         MODULE    ---      ---       SEEKFREE_ABSOLUTE_ENCODER
      00000006H   SYMBOL    DATA     VOID      i
      00000005H   SYMBOL    DATA     VOID      dat
      00000004H   SYMBOL    DATA     VOID      angle

      ---         MODULE    ---      ---       SEEKFREE_BLUETOOTH_CH9141
      02000291H   PUBLIC    XDATA    ---       mac_address
      02000290H   PUBLIC    XDATA    BYTE      at_mode_cmd_flag
      0200028FH   PUBLIC    XDATA    BYTE      at_mode
      02000271H   PUBLIC    XDATA    ---       at_mode_data
      02000270H   PUBLIC    XDATA    BYTE      uart_flag
      0200026FH   PUBLIC    XDATA    BYTE      uart_data
      0200026EH   PUBLIC    XDATA    BYTE      at_mode_num
      0200026DH   PUBLIC    XDATA    BYTE      bluetooth_ch9141_rx_buffer
      01002D7CH   PUBLIC    CODE     ---       bluetooth_ch9141_check_response
      01002DFAH   PUBLIC    CODE     ---       bluetooth_ch9141_uart_callback

      01002DFAH   BLOCK     CODE     ---       LVL=0
      ---         BLOCKEND  ---      ---       LVL=0

      01002D7CH   BLOCK     CODE     ---       LVL=0
      ---         BLOCKEND  ---      ---       LVL=0
      00000007H   SYMBOL    DATA     VOID      ch9141_status
      00000003H   SYMBOL    DATA     VOID      i

      ---         MODULE    ---      ---       SEEKFREE_FONT
      01003789H   PUBLIC    CONST    ---       oled_8x16
      01003561H   PUBLIC    CONST    ---       oled_6x8
      01002F71H   PUBLIC    CONST    ---       tft_ascii

      ---         MODULE    ---      ---       SEEKFREE_ICM20602
      020002D7H   PUBLIC    XDATA    INT       icm_gyro_z
      020002D5H   PUBLIC    XDATA    INT       icm_gyro_y
      020002D3H   PUBLIC    XDATA    INT       icm_gyro_x
      020002D1H   PUBLIC    XDATA    INT       icm_acc_z
      020002CFH   PUBLIC    XDATA    INT       icm_acc_y
      020002CDH   PUBLIC    XDATA    INT       icm_acc_x
      00000006H   SYMBOL    DATA     VOID      i
LX51 LINKER/LOCATER V4.66.97.0                                                        05/09/2022  19:31:19  PAGE 25


      00000004H   SYMBOL    DATA     VOID      i

      ---         MODULE    ---      ---       SEEKFREE_IIC
      020002F2H   PUBLIC    XDATA    ---       IIC_buf
      020002F1H   PUBLIC    XDATA    BYTE      IIC_ad_sub
      020002F0H   PUBLIC    XDATA    BYTE      IIC_num
      020002EFH   PUBLIC    XDATA    BYTE      IIC_ad_main
      00000006H   SYMBOL    DATA     VOID      j
      00000003H   SYMBOL    DATA     VOID      i
      00000002H   SYMBOL    DATA     VOID      i
      00000003H   SYMBOL    DATA     VOID      c
      00000005H   SYMBOL    DATA     VOID      dat

      ---         MODULE    ---      ---       SEEKFREE_IPS114_SPI
      00000006H   SYMBOL    DATA     VOID      i
      00000006H   SYMBOL    DATA     VOID      i
      00000005H   SYMBOL    DATA     VOID      i
      00000002H   SYMBOL    DATA     VOID      j
      00000002H   SYMBOL    DATA     VOID      j
      00000003H   SYMBOL    DATA     VOID      temp
      00000005H   SYMBOL    DATA     VOID      point
      00000005H   SYMBOL    DATA     VOID      point

      ---         MODULE    ---      ---       SEEKFREE_MPU6050
      020002E3H   PUBLIC    XDATA    INT       mpu_gyro_z
      020002E1H   PUBLIC    XDATA    INT       mpu_gyro_y
      020002DFH   PUBLIC    XDATA    INT       mpu_gyro_x
      020002DDH   PUBLIC    XDATA    INT       mpu_acc_z
      020002DBH   PUBLIC    XDATA    INT       mpu_acc_y
      020002D9H   PUBLIC    XDATA    INT       mpu_acc_x

      ---         MODULE    ---      ---       SEEKFREE_OLED
      00000006H   SYMBOL    DATA     VOID      i
      00000006H   SYMBOL    DATA     VOID      i
      00000003H   SYMBOL    DATA     VOID      y
      00000002H   SYMBOL    DATA     VOID      x
      00000004H   SYMBOL    DATA     VOID      i
      00000004H   SYMBOL    DATA     VOID      i
      00000005H   SYMBOL    DATA     VOID      point
      00000005H   SYMBOL    DATA     VOID      point

      ---         MODULE    ---      ---       SEEKFREE_TSL1401
      02000001H   PUBLIC    XDATA    ---       ccd_data
      02000000H   PUBLIC    XDATA    BYTE      tsl1401_finish_flag
      01002C14H   PUBLIC    CODE     ---       ccd_collect

      01002C14H   BLOCK     CODE     ---       LVL=0
      01002C14H   BLOCK     CODE     NEAR LAB  LVL=1
      020002AAH   SYMBOL    XDATA    VOID      i
      ---         BLOCKEND  ---      ---       LVL=1
      ---         BLOCKEND  ---      ---       LVL=0

      ---         MODULE    ---      ---       SEEKFREE_VIRSCO
      020002E5H   PUBLIC    XDATA    ---       virtual_scope_data
      00000005H   SYMBOL    DATA     VOID      j
      00000004H   SYMBOL    DATA     VOID      CRC16

      ---         MODULE    ---      ---       SEEKFREE_WIRELESS
      01002F5DH   PUBLIC    CODE     ---       wireless_uart_callback

      01002F5DH   BLOCK     CODE     ---       LVL=0
      01002F5DH   BLOCK     CODE     NEAR LAB  LVL=1
      020002A2H   SYMBOL    XDATA    VOID      wireless_rx_buffer
      ---         BLOCKEND  ---      ---       LVL=1
      ---         BLOCKEND  ---      ---       LVL=0
LX51 LINKER/LOCATER V4.66.97.0                                                        05/09/2022  19:31:19  PAGE 26



      ---         MODULE    ---      ---       SEEKFREE_WIRELESS_CH573
      01002F64H   PUBLIC    CODE     ---       wireless_ch573_callback

      01002F64H   BLOCK     CODE     ---       LVL=0
      01002F64H   BLOCK     CODE     NEAR LAB  LVL=1
      020002A2H   SYMBOL    XDATA    VOID      wireless_573_rx_buffer
      ---         BLOCKEND  ---      ---       LVL=1
      ---         BLOCKEND  ---      ---       LVL=0

      ---         MODULE    ---      ---       ISR
      01002DBCH   PUBLIC    CODE     ---       TM4_Isr
      01002EE5H   PUBLIC    CODE     ---       TM3_Isr
      0100001EH   PUBLIC    CODE     ---       TM2_Isr
      01000066H   PUBLIC    CODE     ---       TM1_Isr
      01000012H   PUBLIC    CODE     ---       TM0_Isr
      01000016H   PUBLIC    CODE     ---       INT4_Isr
      0100000EH   PUBLIC    CODE     ---       INT3_Isr
      01000006H   PUBLIC    CODE     ---       INT2_Isr
      0100000AH   PUBLIC    CODE     ---       INT1_Isr
      01000086H   PUBLIC    CODE     ---       INT0_Isr
      01002A3BH   PUBLIC    CODE     ---       UART4_Isr
      01002EA5H   PUBLIC    CODE     ---       UART3_Isr
      01002E83H   PUBLIC    CODE     ---       UART2_Isr
      01002BC5H   PUBLIC    CODE     ---       UART1_Isr
      01002CF3H   PUBLIC    CODE     ---       read_hw

      01002CF3H   BLOCK     CODE     ---       LVL=0
      ---         BLOCKEND  ---      ---       LVL=0

      01002BC5H   BLOCK     CODE     ---       LVL=0
      01002BD2H   BLOCK     CODE     NEAR LAB  LVL=1
      00000007H   SYMBOL    DATA     VOID      res
      020002FEH   SYMBOL    XDATA    VOID      dwon_count
      ---         BLOCKEND  ---      ---       LVL=1
      ---         BLOCKEND  ---      ---       LVL=0

      01002E83H   BLOCK     CODE     ---       LVL=0
      ---         BLOCKEND  ---      ---       LVL=0

      01002EA5H   BLOCK     CODE     ---       LVL=0
      ---         BLOCKEND  ---      ---       LVL=0

      01002A3BH   BLOCK     CODE     ---       LVL=0
      ---         BLOCKEND  ---      ---       LVL=0

      01000086H   BLOCK     CODE     ---       LVL=0
      ---         BLOCKEND  ---      ---       LVL=0

      0100000AH   BLOCK     CODE     ---       LVL=0
      ---         BLOCKEND  ---      ---       LVL=0

      01000006H   BLOCK     CODE     ---       LVL=0
      ---         BLOCKEND  ---      ---       LVL=0

      0100000EH   BLOCK     CODE     ---       LVL=0
      ---         BLOCKEND  ---      ---       LVL=0

      01000016H   BLOCK     CODE     ---       LVL=0
      ---         BLOCKEND  ---      ---       LVL=0

      01000012H   BLOCK     CODE     ---       LVL=0
      ---         BLOCKEND  ---      ---       LVL=0

      01000066H   BLOCK     CODE     ---       LVL=0
LX51 LINKER/LOCATER V4.66.97.0                                                        05/09/2022  19:31:19  PAGE 27


      ---         BLOCKEND  ---      ---       LVL=0

      0100001EH   BLOCK     CODE     ---       LVL=0
      ---         BLOCKEND  ---      ---       LVL=0

      01002EE5H   BLOCK     CODE     ---       LVL=0
      ---         BLOCKEND  ---      ---       LVL=0

      01002DBCH   BLOCK     CODE     ---       LVL=0
      ---         BLOCKEND  ---      ---       LVL=0

      ---         MODULE    ---      ---       MAIN
      02000269H   PUBLIC    XDATA    FLOAT     wt
      02000268H   PUBLIC    XDATA    BYTE      k
      02000266H   PUBLIC    XDATA    INT       j
      02000264H   PUBLIC    XDATA    INT       startcar
      02000262H   PUBLIC    XDATA    INT       i
      02000260H   PUBLIC    XDATA    INT       start2
      0200025EH   PUBLIC    XDATA    INT       time1
      02000250H   PUBLIC    XDATA    ---       hw
      0200024EH   PUBLIC    XDATA    INT       R_motor_speed
      020001EEH   PUBLIC    XDATA    ---       str
      020001EAH   PUBLIC    XDATA    FLOAT     ct
      020001E8H   PUBLIC    XDATA    INT       L_motor_speed
      020001DAH   PUBLIC    XDATA    ---       num
      020001D8H   PUBLIC    XDATA    INT       delaytime
      020001D6H   PUBLIC    XDATA    INT       sign
      020001D4H   PUBLIC    XDATA    INT       error
      020001D2H   PUBLIC    XDATA    INT       motor_speed
      020001D0H   PUBLIC    XDATA    INT       tmp2
      020001CEH   PUBLIC    XDATA    INT       tmp1
      01002281H   PUBLIC    CODE     ---       straight_S_line
      01002842H   PUBLIC    CODE     ---       turn
      010009C9H   PUBLIC    CODE     ---       m_speed_change
      010016C4H   PUBLIC    CODE     ---       sign_crossing
      01002F1EH   PUBLIC    CODE     ---       readdata
      01002F03H   PUBLIC    CODE     ---       writedata
      0100268AH   PUBLIC    CODE     ---       keyboard
      01002545H   PUBLIC    CODE     ---       showdata
      01001CD1H   PUBLIC    CODE     ---       main

      01001CD1H   BLOCK     CODE     ---       LVL=0
      01001DD9H   BLOCK     CODE     NEAR LAB  LVL=1
      020002ABH   SYMBOL    XDATA    VOID      temmp
      ---         BLOCKEND  ---      ---       LVL=1
      ---         BLOCKEND  ---      ---       LVL=0

      0100252BH   BLOCK     CODE     ---       LVL=0
      ---         BLOCKEND  ---      ---       LVL=0

      01002545H   BLOCK     CODE     ---       LVL=0
      ---         BLOCKEND  ---      ---       LVL=0

      0100268AH   BLOCK     CODE     ---       LVL=0
      ---         BLOCKEND  ---      ---       LVL=0

      01002F03H   BLOCK     CODE     ---       LVL=0
      ---         BLOCKEND  ---      ---       LVL=0

      01002F1EH   BLOCK     CODE     ---       LVL=0
      01002F1EH   BLOCK     CODE     NEAR LAB  LVL=1
      020002B1H   SYMBOL    XDATA    VOID      adddd
      ---         BLOCKEND  ---      ---       LVL=1
      ---         BLOCKEND  ---      ---       LVL=0

LX51 LINKER/LOCATER V4.66.97.0                                                        05/09/2022  19:31:19  PAGE 28


      010016C4H   BLOCK     CODE     ---       LVL=0
      ---         BLOCKEND  ---      ---       LVL=0

      010009C9H   BLOCK     CODE     ---       LVL=0
      ---         BLOCKEND  ---      ---       LVL=0

      01002842H   BLOCK     CODE     ---       LVL=0
      ---         BLOCKEND  ---      ---       LVL=0

      01002281H   BLOCK     CODE     ---       LVL=0
      ---         BLOCKEND  ---      ---       LVL=0

      ---         MODULE    ---      ---       ?C?FPADD
      010000ADH   PUBLIC    CODE     ---       ?C?FPADD
      010000A9H   PUBLIC    CODE     ---       ?C?FPSUB

      ---         MODULE    ---      ---       ?C?FPMUL
      0100019EH   PUBLIC    CODE     ---       ?C?FPMUL

      ---         MODULE    ---      ---       ?C?FPDIV
      010002A7H   PUBLIC    CODE     ---       ?C?FPDIV

      ---         MODULE    ---      ---       ?C?FPCMP
      01000346H   PUBLIC    CODE     ---       ?C?FPCMP
      01000344H   PUBLIC    CODE     ---       ?C?FPCMP3

      ---         MODULE    ---      ---       ?C?FPNEG
      010003BDH   PUBLIC    CODE     ---       ?C?FPNEG

      ---         MODULE    ---      ---       ?C?FCAST
      010003D8H   PUBLIC    CODE     ---       ?C?FCASTC
      010003D3H   PUBLIC    CODE     ---       ?C?FCASTI
      010003CEH   PUBLIC    CODE     ---       ?C?FCASTL

      ---         MODULE    ---      ---       ?C?CASTF
      0100040CH   PUBLIC    CODE     ---       ?C?CASTF

      ---         MODULE    ---      ---       ?C?FPGETOPN
      01000443H   PUBLIC    CODE     ---       ?C?FPGETOPN2
      01000478H   PUBLIC    CODE     ---       ?C?FPNANRESULT
      01000482H   PUBLIC    CODE     ---       ?C?FPOVERFLOW
      0100045AH   PUBLIC    CODE     ---       ?C?FPRESULT
      0100046EH   PUBLIC    CODE     ---       ?C?FPRESULT2
      0100047FH   PUBLIC    CODE     ---       ?C?FPUNDERFLOW

      ---         MODULE    ---      ---       ?C_STARTUP
      01000000H   PUBLIC    CODE     ---       ?C_STARTUP

      ---         MODULE    ---      ---       ?C?COPY
      0100055DH   PUBLIC    CODE     ---       ?C?COPY

      ---         MODULE    ---      ---       ?C?SCDIV
      01000583H   PUBLIC    CODE     ---       ?C?SCDIV

      ---         MODULE    ---      ---       ?C?CLDPTR
      010005A5H   PUBLIC    CODE     ---       ?C?CLDPTR

      ---         MODULE    ---      ---       ?C?CLDOPTR
      010005BEH   PUBLIC    CODE     ---       ?C?CLDOPTR

      ---         MODULE    ---      ---       ?C?CSTPTR
      010005EBH   PUBLIC    CODE     ---       ?C?CSTPTR

      ---         MODULE    ---      ---       ?C?CSTOPTR
      010005FDH   PUBLIC    CODE     ---       ?C?CSTOPTR
LX51 LINKER/LOCATER V4.66.97.0                                                        05/09/2022  19:31:19  PAGE 29



      ---         MODULE    ---      ---       ?C?IMUL
      0100061FH   PUBLIC    CODE     ---       ?C?IMUL

      ---         MODULE    ---      ---       ?C?UIDIV
      01000631H   PUBLIC    CODE     ---       ?C?UIDIV

      ---         MODULE    ---      ---       ?C?SIDIV
      01000686H   PUBLIC    CODE     ---       ?C?SIDIV

      ---         MODULE    ---      ---       ?C?IILDX
      010006BCH   PUBLIC    CODE     ---       ?C?IILDX

      ---         MODULE    ---      ---       ?C?ILDIX
      010006D2H   PUBLIC    CODE     ---       ?C?ILDIX

      ---         MODULE    ---      ---       ?C?ILDOPTR
      010006E8H   PUBLIC    CODE     ---       ?C?ILDOPTR

      ---         MODULE    ---      ---       ?C?LMUL
      01000720H   PUBLIC    CODE     ---       ?C?LMUL

      ---         MODULE    ---      ---       ?C?ULDIV
      010007ABH   PUBLIC    CODE     ---       ?C?ULDIV

      ---         MODULE    ---      ---       ?C?SLDIV
      01002D38H   PUBLIC    CODE     ---       ?C?SLDIV

      ---         MODULE    ---      ---       ?C?LNEG
      0100083DH   PUBLIC    CODE     ---       ?C?LNEG

      ---         MODULE    ---      ---       ?C?SLCMP
      0100084BH   PUBLIC    CODE     ---       ?C?SLCMP

      ---         MODULE    ---      ---       ?C?ULCMP
      01000861H   PUBLIC    CODE     ---       ?C?ULCMP

      ---         MODULE    ---      ---       ?C?ULSHR
      01000872H   PUBLIC    CODE     ---       ?C?ULSHR

      ---         MODULE    ---      ---       ?C?LLDPTR
      01000885H   PUBLIC    CODE     ---       ?C?LLDPTR

      ---         MODULE    ---      ---       ?C?LLDIXDATA
      010008AEH   PUBLIC    CODE     ---       ?C?LLDIXDATA
      010008A5H   PUBLIC    CODE     ---       ?C?LLDIXDATA1
      010008A7H   PUBLIC    CODE     ---       ?C?LLDIXDATA8

      ---         MODULE    ---      ---       ?C?LSTXDATA
      010008DAH   PUBLIC    CODE     ---       ?C?LSTXDATA

      ---         MODULE    ---      ---       ?C?LSTKXDATA
      010008E6H   PUBLIC    CODE     ---       ?C?LSTKXDATA

      ---         MODULE    ---      ---       ?C?OFFX256
      01000917H   PUBLIC    CODE     ---       ?C?OFFX256

      ---         MODULE    ---      ---       ?C?PLDPTR
      01000928H   PUBLIC    CODE     ---       ?C?PLDPTR

      ---         MODULE    ---      ---       ?C?CCASE
      01000948H   PUBLIC    CODE     ---       ?C?CCASE

      ---         MODULE    ---      ---       STRNCMP
      020002A2H   PUBLIC    XDATA    ---       ?_STRNCMP?BYTE
LX51 LINKER/LOCATER V4.66.97.0                                                        05/09/2022  19:31:19  PAGE 30


      010028CCH   PUBLIC    CODE     ---       _STRNCMP

      ---         MODULE    ---      ---       STRLEN

      ---         MODULE    ---      ---       ?C_INIT
      010027FDH   PUBLIC    CODE     ---       ?C_START

      ---         MODULE    ---      ---       ?C?LLDIDATA
      0100096EH   PUBLIC    CODE     ---       ?C?LLDIDATA

      ---         MODULE    ---      ---       ?C?LLDXDATA
      0100097AH   PUBLIC    CODE     ---       ?C?LLDXDATA

      ---         MODULE    ---      ---       ?C?LLDPDATA
      01000986H   PUBLIC    CODE     ---       ?C?LLDPDATA

      ---         MODULE    ---      ---       ?C?LLDCODE
      01000992H   PUBLIC    CODE     ---       ?C?LLDCODE

      ---         MODULE    ---      ---       ?C?PLDIDATA
      010009A2H   PUBLIC    CODE     ---       ?C?PLDIDATA

      ---         MODULE    ---      ---       ?C?PLDXDATA
      010009ABH   PUBLIC    CODE     ---       ?C?PLDXDATA

      ---         MODULE    ---      ---       ?C?PLDPDATA
      010009B4H   PUBLIC    CODE     ---       ?C?PLDPDATA

      ---         MODULE    ---      ---       ?C?PLDCODE
      010009BDH   PUBLIC    CODE     ---       ?C?PLDCODE



*** WARNING L25: DATA TYPES DIFFERENT
    SYMBOL:  hw
    MODULE:  .\BUILD\STC8H8K64U\__\USER\SRC\ISR.O (ISR)
   DEFINED:  .\BUILD\STC8H8K64U\__\USER\SRC\MAIN.O (MAIN)

Program Size: data=9.0 xdata=767 const=3728 code=12120
LX51 RUN COMPLETE.  1 WARNING(S),  0 ERROR(S)
